

Microchip MPLAB XC8 Assembler V2.10 build 88905656 
                                                                                               Mon Oct 21 11:14:31 2019

Microchip MPLAB XC8 C Compiler v2.10 (Free license) build 20190730164152 Og1 
     1                           	processor	16F18426
     2                           	opt	pw 120
     3                           	opt	flic
     4                           	psect	cinit,global,class=CODE,merge=1,delta=2
     5                           	psect	bssCOMMON,global,class=COMMON,space=1,delta=1
     6                           	psect	bssBANK0,global,class=BANK0,space=1,delta=1
     7                           	psect	clrtext,global,class=CODE,delta=2
     8                           	psect	cstackCOMMON,global,class=COMMON,space=1,delta=1
     9                           	psect	cstackBANK0,global,class=BANK0,space=1,delta=1
    10                           	psect	maintext,global,class=CODE,merge=1,split=1,delta=2
    11                           	psect	text1,local,class=CODE,merge=1,delta=2
    12                           	psect	text2,local,class=CODE,merge=1,delta=2
    13                           	psect	text3,local,class=CODE,merge=1,delta=2
    14                           	psect	text4,local,class=CODE,merge=1,delta=2
    15                           	psect	text5,local,class=CODE,merge=1,delta=2
    16                           	psect	text6,local,class=CODE,merge=1,delta=2
    17                           	psect	text7,local,class=CODE,merge=1,delta=2
    18                           	psect	text8,local,class=CODE,merge=1,delta=2
    19                           	psect	intentry,global,class=CODE,delta=2
    20                           	psect	text10,local,class=CODE,merge=1,delta=2
    21                           	psect	text11,local,class=CODE,merge=1,delta=2
    22                           	psect	text12,local,class=CODE,merge=1,delta=2
    23                           	psect	text13,local,class=CODE,merge=1,delta=2
    24                           	dabs	1,0x7E,2
    25  0000                     
    26                           ; Version 2.10
    27                           ; Generated 31/07/2019 GMT
    28                           ; 
    29                           ; Copyright © 2019, Microchip Technology Inc. and its subsidiaries ("Microchip")
    30                           ; All rights reserved.
    31                           ; 
    32                           ; This software is developed by Microchip Technology Inc. and its subsidiaries ("Microch
      +                          ip").
    33                           ; 
    34                           ; Redistribution and use in source and binary forms, with or without modification, are
    35                           ; permitted provided that the following conditions are met:
    36                           ; 
    37                           ;     1. Redistributions of source code must retain the above copyright notice, this lis
      +                          t of
    38                           ;        conditions and the following disclaimer.
    39                           ; 
    40                           ;     2. Redistributions in binary form must reproduce the above copyright notice, this 
      +                          list
    41                           ;        of conditions and the following disclaimer in the documentation and/or other
    42                           ;        materials provided with the distribution.
    43                           ; 
    44                           ;     3. Microchip's name may not be used to endorse or promote products derived from th
      +                          is
    45                           ;        software without specific prior written permission.
    46                           ; 
    47                           ; THIS SOFTWARE IS PROVIDED BY MICROCHIP "AS IS" AND ANY EXPRESS OR IMPLIED WARRANTIES,
    48                           ; INCLUDING, BUT NOT LIMITED TO, THE IMPLIED WARRANTIES OF MERCHANTABILITY AND FITNESS F
      +                          OR
    49                           ; PURPOSE ARE DISCLAIMED.  IN NO EVENT SHALL MICROCHIP BE LIABLE FOR ANY DIRECT, INDIREC
      +                          T,
    50                           ; INCIDENTAL, SPECIAL, EXEMPLARY, OR CONSEQUENTIAL DAMAGES (INCLUDING BUT NOT LIMITED TO
    51                           ; PROCUREMENT OF SUBSTITUTE GOODS OR SERVICES; LOSS OF USE, DATA OR PROFITS; OR BUSINESS
    52                           ; INTERRUPTION) HOWSOEVER CAUSED AND ON ANY THEORY OF LIABILITY, WHETHER IN CONTRACT, ST
      +                          RICT
    53                           ; LIABILITY, OR TORT (INCLUDING NEGLIGENCE OR OTHERWISE) ARISING IN ANY WAY OUT OF THE U
      +                          SE OF
    54                           ; THIS SOFTWARE, EVEN IF ADVISED OF THE POSSIBILITY OF SUCH DAMAGE.
    55                           ; 
    56                           ; 
    57                           ; Code-generator required, PIC16F18426 Definitions
    58                           ; 
    59                           ; SFR Addresses
    60  0000                     	;# 
    61  0001                     	;# 
    62  0002                     	;# 
    63  0003                     	;# 
    64  0004                     	;# 
    65  0005                     	;# 
    66  0006                     	;# 
    67  0007                     	;# 
    68  0008                     	;# 
    69  0009                     	;# 
    70  000A                     	;# 
    71  000B                     	;# 
    72  000C                     	;# 
    73  000E                     	;# 
    74  0012                     	;# 
    75  0014                     	;# 
    76  0018                     	;# 
    77  001A                     	;# 
    78  008C                     	;# 
    79  008C                     	;# 
    80  008D                     	;# 
    81  008E                     	;# 
    82  008E                     	;# 
    83  008F                     	;# 
    84  0090                     	;# 
    85  0090                     	;# 
    86  0091                     	;# 
    87  0092                     	;# 
    88  0092                     	;# 
    89  0093                     	;# 
    90  0094                     	;# 
    91  0094                     	;# 
    92  0095                     	;# 
    93  0096                     	;# 
    94  0096                     	;# 
    95  0097                     	;# 
    96  0098                     	;# 
    97  0099                     	;# 
    98  009A                     	;# 
    99  009B                     	;# 
   100  009B                     	;# 
   101  009C                     	;# 
   102  009D                     	;# 
   103  009D                     	;# 
   104  009E                     	;# 
   105  009F                     	;# 
   106  010C                     	;# 
   107  010C                     	;# 
   108  010D                     	;# 
   109  010E                     	;# 
   110  010F                     	;# 
   111  010F                     	;# 
   112  0110                     	;# 
   113  0111                     	;# 
   114  0112                     	;# 
   115  0113                     	;# 
   116  0114                     	;# 
   117  0115                     	;# 
   118  0116                     	;# 
   119  0117                     	;# 
   120  0118                     	;# 
   121  0119                     	;# 
   122  0119                     	;# 
   123  0119                     	;# 
   124  011A                     	;# 
   125  011A                     	;# 
   126  011A                     	;# 
   127  011B                     	;# 
   128  011B                     	;# 
   129  011B                     	;# 
   130  011B                     	;# 
   131  011B                     	;# 
   132  011C                     	;# 
   133  011C                     	;# 
   134  011C                     	;# 
   135  011D                     	;# 
   136  011D                     	;# 
   137  011D                     	;# 
   138  011E                     	;# 
   139  011E                     	;# 
   140  011E                     	;# 
   141  011F                     	;# 
   142  011F                     	;# 
   143  011F                     	;# 
   144  011F                     	;# 
   145  011F                     	;# 
   146  018C                     	;# 
   147  018D                     	;# 
   148  018E                     	;# 
   149  018F                     	;# 
   150  0190                     	;# 
   151  0191                     	;# 
   152  0192                     	;# 
   153  0196                     	;# 
   154  0197                     	;# 
   155  0198                     	;# 
   156  0199                     	;# 
   157  019A                     	;# 
   158  019B                     	;# 
   159  019C                     	;# 
   160  020C                     	;# 
   161  020D                     	;# 
   162  020E                     	;# 
   163  020E                     	;# 
   164  020F                     	;# 
   165  020F                     	;# 
   166  0210                     	;# 
   167  0210                     	;# 
   168  0211                     	;# 
   169  0211                     	;# 
   170  0212                     	;# 
   171  0213                     	;# 
   172  0214                     	;# 
   173  0214                     	;# 
   174  0215                     	;# 
   175  0215                     	;# 
   176  0216                     	;# 
   177  0216                     	;# 
   178  0217                     	;# 
   179  0217                     	;# 
   180  0218                     	;# 
   181  0219                     	;# 
   182  021A                     	;# 
   183  021A                     	;# 
   184  021B                     	;# 
   185  021B                     	;# 
   186  021C                     	;# 
   187  021C                     	;# 
   188  021D                     	;# 
   189  021D                     	;# 
   190  021E                     	;# 
   191  021F                     	;# 
   192  028C                     	;# 
   193  028C                     	;# 
   194  028D                     	;# 
   195  028D                     	;# 
   196  028E                     	;# 
   197  028F                     	;# 
   198  0290                     	;# 
   199  0291                     	;# 
   200  0292                     	;# 
   201  0292                     	;# 
   202  0293                     	;# 
   203  0293                     	;# 
   204  0294                     	;# 
   205  0295                     	;# 
   206  0296                     	;# 
   207  0297                     	;# 
   208  0298                     	;# 
   209  0298                     	;# 
   210  0299                     	;# 
   211  0299                     	;# 
   212  029A                     	;# 
   213  029B                     	;# 
   214  029C                     	;# 
   215  029D                     	;# 
   216  029F                     	;# 
   217  030C                     	;# 
   218  030C                     	;# 
   219  030D                     	;# 
   220  030E                     	;# 
   221  030F                     	;# 
   222  0310                     	;# 
   223  0310                     	;# 
   224  0311                     	;# 
   225  0312                     	;# 
   226  0313                     	;# 
   227  0314                     	;# 
   228  0314                     	;# 
   229  0315                     	;# 
   230  0316                     	;# 
   231  0317                     	;# 
   232  0318                     	;# 
   233  0318                     	;# 
   234  0319                     	;# 
   235  031A                     	;# 
   236  031B                     	;# 
   237  038C                     	;# 
   238  038C                     	;# 
   239  038D                     	;# 
   240  038E                     	;# 
   241  0390                     	;# 
   242  0390                     	;# 
   243  0391                     	;# 
   244  0392                     	;# 
   245  048C                     	;# 
   246  048C                     	;# 
   247  048D                     	;# 
   248  048E                     	;# 
   249  048F                     	;# 
   250  048F                     	;# 
   251  0490                     	;# 
   252  0491                     	;# 
   253  0492                     	;# 
   254  0492                     	;# 
   255  0493                     	;# 
   256  0494                     	;# 
   257  0495                     	;# 
   258  0495                     	;# 
   259  0496                     	;# 
   260  0497                     	;# 
   261  0498                     	;# 
   262  0499                     	;# 
   263  049A                     	;# 
   264  049B                     	;# 
   265  049C                     	;# 
   266  049D                     	;# 
   267  058C                     	;# 
   268  058C                     	;# 
   269  058D                     	;# 
   270  058E                     	;# 
   271  058F                     	;# 
   272  058F                     	;# 
   273  0590                     	;# 
   274  0591                     	;# 
   275  0592                     	;# 
   276  0593                     	;# 
   277  059C                     	;# 
   278  059C                     	;# 
   279  059D                     	;# 
   280  059D                     	;# 
   281  059E                     	;# 
   282  059F                     	;# 
   283  060C                     	;# 
   284  060C                     	;# 
   285  060D                     	;# 
   286  060D                     	;# 
   287  060E                     	;# 
   288  060F                     	;# 
   289  0610                     	;# 
   290  0611                     	;# 
   291  0612                     	;# 
   292  0613                     	;# 
   293  0614                     	;# 
   294  0616                     	;# 
   295  0616                     	;# 
   296  0617                     	;# 
   297  0617                     	;# 
   298  0618                     	;# 
   299  0619                     	;# 
   300  061A                     	;# 
   301  061B                     	;# 
   302  061C                     	;# 
   303  061D                     	;# 
   304  061E                     	;# 
   305  070C                     	;# 
   306  070D                     	;# 
   307  070E                     	;# 
   308  070F                     	;# 
   309  0710                     	;# 
   310  0711                     	;# 
   311  0712                     	;# 
   312  0713                     	;# 
   313  0714                     	;# 
   314  0716                     	;# 
   315  0717                     	;# 
   316  0718                     	;# 
   317  0719                     	;# 
   318  071A                     	;# 
   319  071B                     	;# 
   320  071C                     	;# 
   321  071D                     	;# 
   322  071E                     	;# 
   323  0796                     	;# 
   324  0797                     	;# 
   325  0798                     	;# 
   326  0799                     	;# 
   327  079A                     	;# 
   328  079B                     	;# 
   329  079C                     	;# 
   330  079D                     	;# 
   331  080C                     	;# 
   332  080D                     	;# 
   333  080E                     	;# 
   334  080F                     	;# 
   335  0810                     	;# 
   336  0811                     	;# 
   337  0812                     	;# 
   338  0813                     	;# 
   339  0814                     	;# 
   340  081A                     	;# 
   341  081A                     	;# 
   342  081B                     	;# 
   343  081C                     	;# 
   344  081C                     	;# 
   345  081D                     	;# 
   346  081E                     	;# 
   347  081F                     	;# 
   348  088C                     	;# 
   349  088D                     	;# 
   350  088E                     	;# 
   351  088F                     	;# 
   352  0890                     	;# 
   353  0891                     	;# 
   354  0892                     	;# 
   355  0893                     	;# 
   356  0895                     	;# 
   357  0896                     	;# 
   358  0897                     	;# 
   359  0898                     	;# 
   360  0899                     	;# 
   361  089A                     	;# 
   362  089B                     	;# 
   363  090C                     	;# 
   364  090E                     	;# 
   365  090F                     	;# 
   366  091F                     	;# 
   367  098F                     	;# 
   368  098F                     	;# 
   369  0990                     	;# 
   370  0991                     	;# 
   371  0992                     	;# 
   372  0993                     	;# 
   373  0994                     	;# 
   374  0995                     	;# 
   375  0996                     	;# 
   376  0997                     	;# 
   377  1E0F                     	;# 
   378  1E10                     	;# 
   379  1E11                     	;# 
   380  1E12                     	;# 
   381  1E13                     	;# 
   382  1E14                     	;# 
   383  1E15                     	;# 
   384  1E16                     	;# 
   385  1E17                     	;# 
   386  1E18                     	;# 
   387  1E19                     	;# 
   388  1E1A                     	;# 
   389  1E1B                     	;# 
   390  1E1C                     	;# 
   391  1E1D                     	;# 
   392  1E1E                     	;# 
   393  1E1F                     	;# 
   394  1E20                     	;# 
   395  1E21                     	;# 
   396  1E22                     	;# 
   397  1E23                     	;# 
   398  1E24                     	;# 
   399  1E25                     	;# 
   400  1E26                     	;# 
   401  1E27                     	;# 
   402  1E28                     	;# 
   403  1E29                     	;# 
   404  1E2A                     	;# 
   405  1E2B                     	;# 
   406  1E2C                     	;# 
   407  1E2D                     	;# 
   408  1E2E                     	;# 
   409  1E2F                     	;# 
   410  1E30                     	;# 
   411  1E31                     	;# 
   412  1E32                     	;# 
   413  1E33                     	;# 
   414  1E34                     	;# 
   415  1E35                     	;# 
   416  1E36                     	;# 
   417  1E37                     	;# 
   418  1E8F                     	;# 
   419  1E90                     	;# 
   420  1E91                     	;# 
   421  1E92                     	;# 
   422  1E93                     	;# 
   423  1E94                     	;# 
   424  1E95                     	;# 
   425  1E96                     	;# 
   426  1E97                     	;# 
   427  1E9C                     	;# 
   428  1E9D                     	;# 
   429  1E9E                     	;# 
   430  1EA1                     	;# 
   431  1EA2                     	;# 
   432  1EA3                     	;# 
   433  1EA4                     	;# 
   434  1EA9                     	;# 
   435  1EAA                     	;# 
   436  1EB1                     	;# 
   437  1EB2                     	;# 
   438  1EB8                     	;# 
   439  1EB9                     	;# 
   440  1EBA                     	;# 
   441  1EBB                     	;# 
   442  1EBC                     	;# 
   443  1EBD                     	;# 
   444  1EBE                     	;# 
   445  1EC3                     	;# 
   446  1EC5                     	;# 
   447  1EC6                     	;# 
   448  1EC7                     	;# 
   449  1EC8                     	;# 
   450  1EC9                     	;# 
   451  1ECA                     	;# 
   452  1ECB                     	;# 
   453  1ECC                     	;# 
   454  1F10                     	;# 
   455  1F11                     	;# 
   456  1F12                     	;# 
   457  1F14                     	;# 
   458  1F15                     	;# 
   459  1F20                     	;# 
   460  1F21                     	;# 
   461  1F22                     	;# 
   462  1F23                     	;# 
   463  1F24                     	;# 
   464  1F25                     	;# 
   465  1F38                     	;# 
   466  1F39                     	;# 
   467  1F3A                     	;# 
   468  1F3B                     	;# 
   469  1F3C                     	;# 
   470  1F3D                     	;# 
   471  1F3E                     	;# 
   472  1F3F                     	;# 
   473  1F4E                     	;# 
   474  1F4F                     	;# 
   475  1F50                     	;# 
   476  1F51                     	;# 
   477  1F52                     	;# 
   478  1F53                     	;# 
   479  1F54                     	;# 
   480  1F55                     	;# 
   481  1FE4                     	;# 
   482  1FE5                     	;# 
   483  1FE6                     	;# 
   484  1FE7                     	;# 
   485  1FE8                     	;# 
   486  1FE8                     	;# 
   487  1FE9                     	;# 
   488  1FEA                     	;# 
   489  1FEB                     	;# 
   490  1FED                     	;# 
   491  1FEE                     	;# 
   492  1FEF                     	;# 
   493  0000                     	;# 
   494  0001                     	;# 
   495  0002                     	;# 
   496  0003                     	;# 
   497  0004                     	;# 
   498  0005                     	;# 
   499  0006                     	;# 
   500  0007                     	;# 
   501  0008                     	;# 
   502  0009                     	;# 
   503  000A                     	;# 
   504  000B                     	;# 
   505  000C                     	;# 
   506  000E                     	;# 
   507  0012                     	;# 
   508  0014                     	;# 
   509  0018                     	;# 
   510  001A                     	;# 
   511  008C                     	;# 
   512  008C                     	;# 
   513  008D                     	;# 
   514  008E                     	;# 
   515  008E                     	;# 
   516  008F                     	;# 
   517  0090                     	;# 
   518  0090                     	;# 
   519  0091                     	;# 
   520  0092                     	;# 
   521  0092                     	;# 
   522  0093                     	;# 
   523  0094                     	;# 
   524  0094                     	;# 
   525  0095                     	;# 
   526  0096                     	;# 
   527  0096                     	;# 
   528  0097                     	;# 
   529  0098                     	;# 
   530  0099                     	;# 
   531  009A                     	;# 
   532  009B                     	;# 
   533  009B                     	;# 
   534  009C                     	;# 
   535  009D                     	;# 
   536  009D                     	;# 
   537  009E                     	;# 
   538  009F                     	;# 
   539  010C                     	;# 
   540  010C                     	;# 
   541  010D                     	;# 
   542  010E                     	;# 
   543  010F                     	;# 
   544  010F                     	;# 
   545  0110                     	;# 
   546  0111                     	;# 
   547  0112                     	;# 
   548  0113                     	;# 
   549  0114                     	;# 
   550  0115                     	;# 
   551  0116                     	;# 
   552  0117                     	;# 
   553  0118                     	;# 
   554  0119                     	;# 
   555  0119                     	;# 
   556  0119                     	;# 
   557  011A                     	;# 
   558  011A                     	;# 
   559  011A                     	;# 
   560  011B                     	;# 
   561  011B                     	;# 
   562  011B                     	;# 
   563  011B                     	;# 
   564  011B                     	;# 
   565  011C                     	;# 
   566  011C                     	;# 
   567  011C                     	;# 
   568  011D                     	;# 
   569  011D                     	;# 
   570  011D                     	;# 
   571  011E                     	;# 
   572  011E                     	;# 
   573  011E                     	;# 
   574  011F                     	;# 
   575  011F                     	;# 
   576  011F                     	;# 
   577  011F                     	;# 
   578  011F                     	;# 
   579  018C                     	;# 
   580  018D                     	;# 
   581  018E                     	;# 
   582  018F                     	;# 
   583  0190                     	;# 
   584  0191                     	;# 
   585  0192                     	;# 
   586  0196                     	;# 
   587  0197                     	;# 
   588  0198                     	;# 
   589  0199                     	;# 
   590  019A                     	;# 
   591  019B                     	;# 
   592  019C                     	;# 
   593  020C                     	;# 
   594  020D                     	;# 
   595  020E                     	;# 
   596  020E                     	;# 
   597  020F                     	;# 
   598  020F                     	;# 
   599  0210                     	;# 
   600  0210                     	;# 
   601  0211                     	;# 
   602  0211                     	;# 
   603  0212                     	;# 
   604  0213                     	;# 
   605  0214                     	;# 
   606  0214                     	;# 
   607  0215                     	;# 
   608  0215                     	;# 
   609  0216                     	;# 
   610  0216                     	;# 
   611  0217                     	;# 
   612  0217                     	;# 
   613  0218                     	;# 
   614  0219                     	;# 
   615  021A                     	;# 
   616  021A                     	;# 
   617  021B                     	;# 
   618  021B                     	;# 
   619  021C                     	;# 
   620  021C                     	;# 
   621  021D                     	;# 
   622  021D                     	;# 
   623  021E                     	;# 
   624  021F                     	;# 
   625  028C                     	;# 
   626  028C                     	;# 
   627  028D                     	;# 
   628  028D                     	;# 
   629  028E                     	;# 
   630  028F                     	;# 
   631  0290                     	;# 
   632  0291                     	;# 
   633  0292                     	;# 
   634  0292                     	;# 
   635  0293                     	;# 
   636  0293                     	;# 
   637  0294                     	;# 
   638  0295                     	;# 
   639  0296                     	;# 
   640  0297                     	;# 
   641  0298                     	;# 
   642  0298                     	;# 
   643  0299                     	;# 
   644  0299                     	;# 
   645  029A                     	;# 
   646  029B                     	;# 
   647  029C                     	;# 
   648  029D                     	;# 
   649  029F                     	;# 
   650  030C                     	;# 
   651  030C                     	;# 
   652  030D                     	;# 
   653  030E                     	;# 
   654  030F                     	;# 
   655  0310                     	;# 
   656  0310                     	;# 
   657  0311                     	;# 
   658  0312                     	;# 
   659  0313                     	;# 
   660  0314                     	;# 
   661  0314                     	;# 
   662  0315                     	;# 
   663  0316                     	;# 
   664  0317                     	;# 
   665  0318                     	;# 
   666  0318                     	;# 
   667  0319                     	;# 
   668  031A                     	;# 
   669  031B                     	;# 
   670  038C                     	;# 
   671  038C                     	;# 
   672  038D                     	;# 
   673  038E                     	;# 
   674  0390                     	;# 
   675  0390                     	;# 
   676  0391                     	;# 
   677  0392                     	;# 
   678  048C                     	;# 
   679  048C                     	;# 
   680  048D                     	;# 
   681  048E                     	;# 
   682  048F                     	;# 
   683  048F                     	;# 
   684  0490                     	;# 
   685  0491                     	;# 
   686  0492                     	;# 
   687  0492                     	;# 
   688  0493                     	;# 
   689  0494                     	;# 
   690  0495                     	;# 
   691  0495                     	;# 
   692  0496                     	;# 
   693  0497                     	;# 
   694  0498                     	;# 
   695  0499                     	;# 
   696  049A                     	;# 
   697  049B                     	;# 
   698  049C                     	;# 
   699  049D                     	;# 
   700  058C                     	;# 
   701  058C                     	;# 
   702  058D                     	;# 
   703  058E                     	;# 
   704  058F                     	;# 
   705  058F                     	;# 
   706  0590                     	;# 
   707  0591                     	;# 
   708  0592                     	;# 
   709  0593                     	;# 
   710  059C                     	;# 
   711  059C                     	;# 
   712  059D                     	;# 
   713  059D                     	;# 
   714  059E                     	;# 
   715  059F                     	;# 
   716  060C                     	;# 
   717  060C                     	;# 
   718  060D                     	;# 
   719  060D                     	;# 
   720  060E                     	;# 
   721  060F                     	;# 
   722  0610                     	;# 
   723  0611                     	;# 
   724  0612                     	;# 
   725  0613                     	;# 
   726  0614                     	;# 
   727  0616                     	;# 
   728  0616                     	;# 
   729  0617                     	;# 
   730  0617                     	;# 
   731  0618                     	;# 
   732  0619                     	;# 
   733  061A                     	;# 
   734  061B                     	;# 
   735  061C                     	;# 
   736  061D                     	;# 
   737  061E                     	;# 
   738  070C                     	;# 
   739  070D                     	;# 
   740  070E                     	;# 
   741  070F                     	;# 
   742  0710                     	;# 
   743  0711                     	;# 
   744  0712                     	;# 
   745  0713                     	;# 
   746  0714                     	;# 
   747  0716                     	;# 
   748  0717                     	;# 
   749  0718                     	;# 
   750  0719                     	;# 
   751  071A                     	;# 
   752  071B                     	;# 
   753  071C                     	;# 
   754  071D                     	;# 
   755  071E                     	;# 
   756  0796                     	;# 
   757  0797                     	;# 
   758  0798                     	;# 
   759  0799                     	;# 
   760  079A                     	;# 
   761  079B                     	;# 
   762  079C                     	;# 
   763  079D                     	;# 
   764  080C                     	;# 
   765  080D                     	;# 
   766  080E                     	;# 
   767  080F                     	;# 
   768  0810                     	;# 
   769  0811                     	;# 
   770  0812                     	;# 
   771  0813                     	;# 
   772  0814                     	;# 
   773  081A                     	;# 
   774  081A                     	;# 
   775  081B                     	;# 
   776  081C                     	;# 
   777  081C                     	;# 
   778  081D                     	;# 
   779  081E                     	;# 
   780  081F                     	;# 
   781  088C                     	;# 
   782  088D                     	;# 
   783  088E                     	;# 
   784  088F                     	;# 
   785  0890                     	;# 
   786  0891                     	;# 
   787  0892                     	;# 
   788  0893                     	;# 
   789  0895                     	;# 
   790  0896                     	;# 
   791  0897                     	;# 
   792  0898                     	;# 
   793  0899                     	;# 
   794  089A                     	;# 
   795  089B                     	;# 
   796  090C                     	;# 
   797  090E                     	;# 
   798  090F                     	;# 
   799  091F                     	;# 
   800  098F                     	;# 
   801  098F                     	;# 
   802  0990                     	;# 
   803  0991                     	;# 
   804  0992                     	;# 
   805  0993                     	;# 
   806  0994                     	;# 
   807  0995                     	;# 
   808  0996                     	;# 
   809  0997                     	;# 
   810  1E0F                     	;# 
   811  1E10                     	;# 
   812  1E11                     	;# 
   813  1E12                     	;# 
   814  1E13                     	;# 
   815  1E14                     	;# 
   816  1E15                     	;# 
   817  1E16                     	;# 
   818  1E17                     	;# 
   819  1E18                     	;# 
   820  1E19                     	;# 
   821  1E1A                     	;# 
   822  1E1B                     	;# 
   823  1E1C                     	;# 
   824  1E1D                     	;# 
   825  1E1E                     	;# 
   826  1E1F                     	;# 
   827  1E20                     	;# 
   828  1E21                     	;# 
   829  1E22                     	;# 
   830  1E23                     	;# 
   831  1E24                     	;# 
   832  1E25                     	;# 
   833  1E26                     	;# 
   834  1E27                     	;# 
   835  1E28                     	;# 
   836  1E29                     	;# 
   837  1E2A                     	;# 
   838  1E2B                     	;# 
   839  1E2C                     	;# 
   840  1E2D                     	;# 
   841  1E2E                     	;# 
   842  1E2F                     	;# 
   843  1E30                     	;# 
   844  1E31                     	;# 
   845  1E32                     	;# 
   846  1E33                     	;# 
   847  1E34                     	;# 
   848  1E35                     	;# 
   849  1E36                     	;# 
   850  1E37                     	;# 
   851  1E8F                     	;# 
   852  1E90                     	;# 
   853  1E91                     	;# 
   854  1E92                     	;# 
   855  1E93                     	;# 
   856  1E94                     	;# 
   857  1E95                     	;# 
   858  1E96                     	;# 
   859  1E97                     	;# 
   860  1E9C                     	;# 
   861  1E9D                     	;# 
   862  1E9E                     	;# 
   863  1EA1                     	;# 
   864  1EA2                     	;# 
   865  1EA3                     	;# 
   866  1EA4                     	;# 
   867  1EA9                     	;# 
   868  1EAA                     	;# 
   869  1EB1                     	;# 
   870  1EB2                     	;# 
   871  1EB8                     	;# 
   872  1EB9                     	;# 
   873  1EBA                     	;# 
   874  1EBB                     	;# 
   875  1EBC                     	;# 
   876  1EBD                     	;# 
   877  1EBE                     	;# 
   878  1EC3                     	;# 
   879  1EC5                     	;# 
   880  1EC6                     	;# 
   881  1EC7                     	;# 
   882  1EC8                     	;# 
   883  1EC9                     	;# 
   884  1ECA                     	;# 
   885  1ECB                     	;# 
   886  1ECC                     	;# 
   887  1F10                     	;# 
   888  1F11                     	;# 
   889  1F12                     	;# 
   890  1F14                     	;# 
   891  1F15                     	;# 
   892  1F20                     	;# 
   893  1F21                     	;# 
   894  1F22                     	;# 
   895  1F23                     	;# 
   896  1F24                     	;# 
   897  1F25                     	;# 
   898  1F38                     	;# 
   899  1F39                     	;# 
   900  1F3A                     	;# 
   901  1F3B                     	;# 
   902  1F3C                     	;# 
   903  1F3D                     	;# 
   904  1F3E                     	;# 
   905  1F3F                     	;# 
   906  1F4E                     	;# 
   907  1F4F                     	;# 
   908  1F50                     	;# 
   909  1F51                     	;# 
   910  1F52                     	;# 
   911  1F53                     	;# 
   912  1F54                     	;# 
   913  1F55                     	;# 
   914  1FE4                     	;# 
   915  1FE5                     	;# 
   916  1FE6                     	;# 
   917  1FE7                     	;# 
   918  1FE8                     	;# 
   919  1FE8                     	;# 
   920  1FE9                     	;# 
   921  1FEA                     	;# 
   922  1FEB                     	;# 
   923  1FED                     	;# 
   924  1FEE                     	;# 
   925  1FEF                     	;# 
   926  0000                     	;# 
   927  0001                     	;# 
   928  0002                     	;# 
   929  0003                     	;# 
   930  0004                     	;# 
   931  0005                     	;# 
   932  0006                     	;# 
   933  0007                     	;# 
   934  0008                     	;# 
   935  0009                     	;# 
   936  000A                     	;# 
   937  000B                     	;# 
   938  000C                     	;# 
   939  000E                     	;# 
   940  0012                     	;# 
   941  0014                     	;# 
   942  0018                     	;# 
   943  001A                     	;# 
   944  008C                     	;# 
   945  008C                     	;# 
   946  008D                     	;# 
   947  008E                     	;# 
   948  008E                     	;# 
   949  008F                     	;# 
   950  0090                     	;# 
   951  0090                     	;# 
   952  0091                     	;# 
   953  0092                     	;# 
   954  0092                     	;# 
   955  0093                     	;# 
   956  0094                     	;# 
   957  0094                     	;# 
   958  0095                     	;# 
   959  0096                     	;# 
   960  0096                     	;# 
   961  0097                     	;# 
   962  0098                     	;# 
   963  0099                     	;# 
   964  009A                     	;# 
   965  009B                     	;# 
   966  009B                     	;# 
   967  009C                     	;# 
   968  009D                     	;# 
   969  009D                     	;# 
   970  009E                     	;# 
   971  009F                     	;# 
   972  010C                     	;# 
   973  010C                     	;# 
   974  010D                     	;# 
   975  010E                     	;# 
   976  010F                     	;# 
   977  010F                     	;# 
   978  0110                     	;# 
   979  0111                     	;# 
   980  0112                     	;# 
   981  0113                     	;# 
   982  0114                     	;# 
   983  0115                     	;# 
   984  0116                     	;# 
   985  0117                     	;# 
   986  0118                     	;# 
   987  0119                     	;# 
   988  0119                     	;# 
   989  0119                     	;# 
   990  011A                     	;# 
   991  011A                     	;# 
   992  011A                     	;# 
   993  011B                     	;# 
   994  011B                     	;# 
   995  011B                     	;# 
   996  011B                     	;# 
   997  011B                     	;# 
   998  011C                     	;# 
   999  011C                     	;# 
  1000  011C                     	;# 
  1001  011D                     	;# 
  1002  011D                     	;# 
  1003  011D                     	;# 
  1004  011E                     	;# 
  1005  011E                     	;# 
  1006  011E                     	;# 
  1007  011F                     	;# 
  1008  011F                     	;# 
  1009  011F                     	;# 
  1010  011F                     	;# 
  1011  011F                     	;# 
  1012  018C                     	;# 
  1013  018D                     	;# 
  1014  018E                     	;# 
  1015  018F                     	;# 
  1016  0190                     	;# 
  1017  0191                     	;# 
  1018  0192                     	;# 
  1019  0196                     	;# 
  1020  0197                     	;# 
  1021  0198                     	;# 
  1022  0199                     	;# 
  1023  019A                     	;# 
  1024  019B                     	;# 
  1025  019C                     	;# 
  1026  020C                     	;# 
  1027  020D                     	;# 
  1028  020E                     	;# 
  1029  020E                     	;# 
  1030  020F                     	;# 
  1031  020F                     	;# 
  1032  0210                     	;# 
  1033  0210                     	;# 
  1034  0211                     	;# 
  1035  0211                     	;# 
  1036  0212                     	;# 
  1037  0213                     	;# 
  1038  0214                     	;# 
  1039  0214                     	;# 
  1040  0215                     	;# 
  1041  0215                     	;# 
  1042  0216                     	;# 
  1043  0216                     	;# 
  1044  0217                     	;# 
  1045  0217                     	;# 
  1046  0218                     	;# 
  1047  0219                     	;# 
  1048  021A                     	;# 
  1049  021A                     	;# 
  1050  021B                     	;# 
  1051  021B                     	;# 
  1052  021C                     	;# 
  1053  021C                     	;# 
  1054  021D                     	;# 
  1055  021D                     	;# 
  1056  021E                     	;# 
  1057  021F                     	;# 
  1058  028C                     	;# 
  1059  028C                     	;# 
  1060  028D                     	;# 
  1061  028D                     	;# 
  1062  028E                     	;# 
  1063  028F                     	;# 
  1064  0290                     	;# 
  1065  0291                     	;# 
  1066  0292                     	;# 
  1067  0292                     	;# 
  1068  0293                     	;# 
  1069  0293                     	;# 
  1070  0294                     	;# 
  1071  0295                     	;# 
  1072  0296                     	;# 
  1073  0297                     	;# 
  1074  0298                     	;# 
  1075  0298                     	;# 
  1076  0299                     	;# 
  1077  0299                     	;# 
  1078  029A                     	;# 
  1079  029B                     	;# 
  1080  029C                     	;# 
  1081  029D                     	;# 
  1082  029F                     	;# 
  1083  030C                     	;# 
  1084  030C                     	;# 
  1085  030D                     	;# 
  1086  030E                     	;# 
  1087  030F                     	;# 
  1088  0310                     	;# 
  1089  0310                     	;# 
  1090  0311                     	;# 
  1091  0312                     	;# 
  1092  0313                     	;# 
  1093  0314                     	;# 
  1094  0314                     	;# 
  1095  0315                     	;# 
  1096  0316                     	;# 
  1097  0317                     	;# 
  1098  0318                     	;# 
  1099  0318                     	;# 
  1100  0319                     	;# 
  1101  031A                     	;# 
  1102  031B                     	;# 
  1103  038C                     	;# 
  1104  038C                     	;# 
  1105  038D                     	;# 
  1106  038E                     	;# 
  1107  0390                     	;# 
  1108  0390                     	;# 
  1109  0391                     	;# 
  1110  0392                     	;# 
  1111  048C                     	;# 
  1112  048C                     	;# 
  1113  048D                     	;# 
  1114  048E                     	;# 
  1115  048F                     	;# 
  1116  048F                     	;# 
  1117  0490                     	;# 
  1118  0491                     	;# 
  1119  0492                     	;# 
  1120  0492                     	;# 
  1121  0493                     	;# 
  1122  0494                     	;# 
  1123  0495                     	;# 
  1124  0495                     	;# 
  1125  0496                     	;# 
  1126  0497                     	;# 
  1127  0498                     	;# 
  1128  0499                     	;# 
  1129  049A                     	;# 
  1130  049B                     	;# 
  1131  049C                     	;# 
  1132  049D                     	;# 
  1133  058C                     	;# 
  1134  058C                     	;# 
  1135  058D                     	;# 
  1136  058E                     	;# 
  1137  058F                     	;# 
  1138  058F                     	;# 
  1139  0590                     	;# 
  1140  0591                     	;# 
  1141  0592                     	;# 
  1142  0593                     	;# 
  1143  059C                     	;# 
  1144  059C                     	;# 
  1145  059D                     	;# 
  1146  059D                     	;# 
  1147  059E                     	;# 
  1148  059F                     	;# 
  1149  060C                     	;# 
  1150  060C                     	;# 
  1151  060D                     	;# 
  1152  060D                     	;# 
  1153  060E                     	;# 
  1154  060F                     	;# 
  1155  0610                     	;# 
  1156  0611                     	;# 
  1157  0612                     	;# 
  1158  0613                     	;# 
  1159  0614                     	;# 
  1160  0616                     	;# 
  1161  0616                     	;# 
  1162  0617                     	;# 
  1163  0617                     	;# 
  1164  0618                     	;# 
  1165  0619                     	;# 
  1166  061A                     	;# 
  1167  061B                     	;# 
  1168  061C                     	;# 
  1169  061D                     	;# 
  1170  061E                     	;# 
  1171  070C                     	;# 
  1172  070D                     	;# 
  1173  070E                     	;# 
  1174  070F                     	;# 
  1175  0710                     	;# 
  1176  0711                     	;# 
  1177  0712                     	;# 
  1178  0713                     	;# 
  1179  0714                     	;# 
  1180  0716                     	;# 
  1181  0717                     	;# 
  1182  0718                     	;# 
  1183  0719                     	;# 
  1184  071A                     	;# 
  1185  071B                     	;# 
  1186  071C                     	;# 
  1187  071D                     	;# 
  1188  071E                     	;# 
  1189  0796                     	;# 
  1190  0797                     	;# 
  1191  0798                     	;# 
  1192  0799                     	;# 
  1193  079A                     	;# 
  1194  079B                     	;# 
  1195  079C                     	;# 
  1196  079D                     	;# 
  1197  080C                     	;# 
  1198  080D                     	;# 
  1199  080E                     	;# 
  1200  080F                     	;# 
  1201  0810                     	;# 
  1202  0811                     	;# 
  1203  0812                     	;# 
  1204  0813                     	;# 
  1205  0814                     	;# 
  1206  081A                     	;# 
  1207  081A                     	;# 
  1208  081B                     	;# 
  1209  081C                     	;# 
  1210  081C                     	;# 
  1211  081D                     	;# 
  1212  081E                     	;# 
  1213  081F                     	;# 
  1214  088C                     	;# 
  1215  088D                     	;# 
  1216  088E                     	;# 
  1217  088F                     	;# 
  1218  0890                     	;# 
  1219  0891                     	;# 
  1220  0892                     	;# 
  1221  0893                     	;# 
  1222  0895                     	;# 
  1223  0896                     	;# 
  1224  0897                     	;# 
  1225  0898                     	;# 
  1226  0899                     	;# 
  1227  089A                     	;# 
  1228  089B                     	;# 
  1229  090C                     	;# 
  1230  090E                     	;# 
  1231  090F                     	;# 
  1232  091F                     	;# 
  1233  098F                     	;# 
  1234  098F                     	;# 
  1235  0990                     	;# 
  1236  0991                     	;# 
  1237  0992                     	;# 
  1238  0993                     	;# 
  1239  0994                     	;# 
  1240  0995                     	;# 
  1241  0996                     	;# 
  1242  0997                     	;# 
  1243  1E0F                     	;# 
  1244  1E10                     	;# 
  1245  1E11                     	;# 
  1246  1E12                     	;# 
  1247  1E13                     	;# 
  1248  1E14                     	;# 
  1249  1E15                     	;# 
  1250  1E16                     	;# 
  1251  1E17                     	;# 
  1252  1E18                     	;# 
  1253  1E19                     	;# 
  1254  1E1A                     	;# 
  1255  1E1B                     	;# 
  1256  1E1C                     	;# 
  1257  1E1D                     	;# 
  1258  1E1E                     	;# 
  1259  1E1F                     	;# 
  1260  1E20                     	;# 
  1261  1E21                     	;# 
  1262  1E22                     	;# 
  1263  1E23                     	;# 
  1264  1E24                     	;# 
  1265  1E25                     	;# 
  1266  1E26                     	;# 
  1267  1E27                     	;# 
  1268  1E28                     	;# 
  1269  1E29                     	;# 
  1270  1E2A                     	;# 
  1271  1E2B                     	;# 
  1272  1E2C                     	;# 
  1273  1E2D                     	;# 
  1274  1E2E                     	;# 
  1275  1E2F                     	;# 
  1276  1E30                     	;# 
  1277  1E31                     	;# 
  1278  1E32                     	;# 
  1279  1E33                     	;# 
  1280  1E34                     	;# 
  1281  1E35                     	;# 
  1282  1E36                     	;# 
  1283  1E37                     	;# 
  1284  1E8F                     	;# 
  1285  1E90                     	;# 
  1286  1E91                     	;# 
  1287  1E92                     	;# 
  1288  1E93                     	;# 
  1289  1E94                     	;# 
  1290  1E95                     	;# 
  1291  1E96                     	;# 
  1292  1E97                     	;# 
  1293  1E9C                     	;# 
  1294  1E9D                     	;# 
  1295  1E9E                     	;# 
  1296  1EA1                     	;# 
  1297  1EA2                     	;# 
  1298  1EA3                     	;# 
  1299  1EA4                     	;# 
  1300  1EA9                     	;# 
  1301  1EAA                     	;# 
  1302  1EB1                     	;# 
  1303  1EB2                     	;# 
  1304  1EB8                     	;# 
  1305  1EB9                     	;# 
  1306  1EBA                     	;# 
  1307  1EBB                     	;# 
  1308  1EBC                     	;# 
  1309  1EBD                     	;# 
  1310  1EBE                     	;# 
  1311  1EC3                     	;# 
  1312  1EC5                     	;# 
  1313  1EC6                     	;# 
  1314  1EC7                     	;# 
  1315  1EC8                     	;# 
  1316  1EC9                     	;# 
  1317  1ECA                     	;# 
  1318  1ECB                     	;# 
  1319  1ECC                     	;# 
  1320  1F10                     	;# 
  1321  1F11                     	;# 
  1322  1F12                     	;# 
  1323  1F14                     	;# 
  1324  1F15                     	;# 
  1325  1F20                     	;# 
  1326  1F21                     	;# 
  1327  1F22                     	;# 
  1328  1F23                     	;# 
  1329  1F24                     	;# 
  1330  1F25                     	;# 
  1331  1F38                     	;# 
  1332  1F39                     	;# 
  1333  1F3A                     	;# 
  1334  1F3B                     	;# 
  1335  1F3C                     	;# 
  1336  1F3D                     	;# 
  1337  1F3E                     	;# 
  1338  1F3F                     	;# 
  1339  1F4E                     	;# 
  1340  1F4F                     	;# 
  1341  1F50                     	;# 
  1342  1F51                     	;# 
  1343  1F52                     	;# 
  1344  1F53                     	;# 
  1345  1F54                     	;# 
  1346  1F55                     	;# 
  1347  1FE4                     	;# 
  1348  1FE5                     	;# 
  1349  1FE6                     	;# 
  1350  1FE7                     	;# 
  1351  1FE8                     	;# 
  1352  1FE8                     	;# 
  1353  1FE9                     	;# 
  1354  1FEA                     	;# 
  1355  1FEB                     	;# 
  1356  1FED                     	;# 
  1357  1FEE                     	;# 
  1358  1FEF                     	;# 
  1359  0000                     	;# 
  1360  0001                     	;# 
  1361  0002                     	;# 
  1362  0003                     	;# 
  1363  0004                     	;# 
  1364  0005                     	;# 
  1365  0006                     	;# 
  1366  0007                     	;# 
  1367  0008                     	;# 
  1368  0009                     	;# 
  1369  000A                     	;# 
  1370  000B                     	;# 
  1371  000C                     	;# 
  1372  000E                     	;# 
  1373  0012                     	;# 
  1374  0014                     	;# 
  1375  0018                     	;# 
  1376  001A                     	;# 
  1377  008C                     	;# 
  1378  008C                     	;# 
  1379  008D                     	;# 
  1380  008E                     	;# 
  1381  008E                     	;# 
  1382  008F                     	;# 
  1383  0090                     	;# 
  1384  0090                     	;# 
  1385  0091                     	;# 
  1386  0092                     	;# 
  1387  0092                     	;# 
  1388  0093                     	;# 
  1389  0094                     	;# 
  1390  0094                     	;# 
  1391  0095                     	;# 
  1392  0096                     	;# 
  1393  0096                     	;# 
  1394  0097                     	;# 
  1395  0098                     	;# 
  1396  0099                     	;# 
  1397  009A                     	;# 
  1398  009B                     	;# 
  1399  009B                     	;# 
  1400  009C                     	;# 
  1401  009D                     	;# 
  1402  009D                     	;# 
  1403  009E                     	;# 
  1404  009F                     	;# 
  1405  010C                     	;# 
  1406  010C                     	;# 
  1407  010D                     	;# 
  1408  010E                     	;# 
  1409  010F                     	;# 
  1410  010F                     	;# 
  1411  0110                     	;# 
  1412  0111                     	;# 
  1413  0112                     	;# 
  1414  0113                     	;# 
  1415  0114                     	;# 
  1416  0115                     	;# 
  1417  0116                     	;# 
  1418  0117                     	;# 
  1419  0118                     	;# 
  1420  0119                     	;# 
  1421  0119                     	;# 
  1422  0119                     	;# 
  1423  011A                     	;# 
  1424  011A                     	;# 
  1425  011A                     	;# 
  1426  011B                     	;# 
  1427  011B                     	;# 
  1428  011B                     	;# 
  1429  011B                     	;# 
  1430  011B                     	;# 
  1431  011C                     	;# 
  1432  011C                     	;# 
  1433  011C                     	;# 
  1434  011D                     	;# 
  1435  011D                     	;# 
  1436  011D                     	;# 
  1437  011E                     	;# 
  1438  011E                     	;# 
  1439  011E                     	;# 
  1440  011F                     	;# 
  1441  011F                     	;# 
  1442  011F                     	;# 
  1443  011F                     	;# 
  1444  011F                     	;# 
  1445  018C                     	;# 
  1446  018D                     	;# 
  1447  018E                     	;# 
  1448  018F                     	;# 
  1449  0190                     	;# 
  1450  0191                     	;# 
  1451  0192                     	;# 
  1452  0196                     	;# 
  1453  0197                     	;# 
  1454  0198                     	;# 
  1455  0199                     	;# 
  1456  019A                     	;# 
  1457  019B                     	;# 
  1458  019C                     	;# 
  1459  020C                     	;# 
  1460  020D                     	;# 
  1461  020E                     	;# 
  1462  020E                     	;# 
  1463  020F                     	;# 
  1464  020F                     	;# 
  1465  0210                     	;# 
  1466  0210                     	;# 
  1467  0211                     	;# 
  1468  0211                     	;# 
  1469  0212                     	;# 
  1470  0213                     	;# 
  1471  0214                     	;# 
  1472  0214                     	;# 
  1473  0215                     	;# 
  1474  0215                     	;# 
  1475  0216                     	;# 
  1476  0216                     	;# 
  1477  0217                     	;# 
  1478  0217                     	;# 
  1479  0218                     	;# 
  1480  0219                     	;# 
  1481  021A                     	;# 
  1482  021A                     	;# 
  1483  021B                     	;# 
  1484  021B                     	;# 
  1485  021C                     	;# 
  1486  021C                     	;# 
  1487  021D                     	;# 
  1488  021D                     	;# 
  1489  021E                     	;# 
  1490  021F                     	;# 
  1491  028C                     	;# 
  1492  028C                     	;# 
  1493  028D                     	;# 
  1494  028D                     	;# 
  1495  028E                     	;# 
  1496  028F                     	;# 
  1497  0290                     	;# 
  1498  0291                     	;# 
  1499  0292                     	;# 
  1500  0292                     	;# 
  1501  0293                     	;# 
  1502  0293                     	;# 
  1503  0294                     	;# 
  1504  0295                     	;# 
  1505  0296                     	;# 
  1506  0297                     	;# 
  1507  0298                     	;# 
  1508  0298                     	;# 
  1509  0299                     	;# 
  1510  0299                     	;# 
  1511  029A                     	;# 
  1512  029B                     	;# 
  1513  029C                     	;# 
  1514  029D                     	;# 
  1515  029F                     	;# 
  1516  030C                     	;# 
  1517  030C                     	;# 
  1518  030D                     	;# 
  1519  030E                     	;# 
  1520  030F                     	;# 
  1521  0310                     	;# 
  1522  0310                     	;# 
  1523  0311                     	;# 
  1524  0312                     	;# 
  1525  0313                     	;# 
  1526  0314                     	;# 
  1527  0314                     	;# 
  1528  0315                     	;# 
  1529  0316                     	;# 
  1530  0317                     	;# 
  1531  0318                     	;# 
  1532  0318                     	;# 
  1533  0319                     	;# 
  1534  031A                     	;# 
  1535  031B                     	;# 
  1536  038C                     	;# 
  1537  038C                     	;# 
  1538  038D                     	;# 
  1539  038E                     	;# 
  1540  0390                     	;# 
  1541  0390                     	;# 
  1542  0391                     	;# 
  1543  0392                     	;# 
  1544  048C                     	;# 
  1545  048C                     	;# 
  1546  048D                     	;# 
  1547  048E                     	;# 
  1548  048F                     	;# 
  1549  048F                     	;# 
  1550  0490                     	;# 
  1551  0491                     	;# 
  1552  0492                     	;# 
  1553  0492                     	;# 
  1554  0493                     	;# 
  1555  0494                     	;# 
  1556  0495                     	;# 
  1557  0495                     	;# 
  1558  0496                     	;# 
  1559  0497                     	;# 
  1560  0498                     	;# 
  1561  0499                     	;# 
  1562  049A                     	;# 
  1563  049B                     	;# 
  1564  049C                     	;# 
  1565  049D                     	;# 
  1566  058C                     	;# 
  1567  058C                     	;# 
  1568  058D                     	;# 
  1569  058E                     	;# 
  1570  058F                     	;# 
  1571  058F                     	;# 
  1572  0590                     	;# 
  1573  0591                     	;# 
  1574  0592                     	;# 
  1575  0593                     	;# 
  1576  059C                     	;# 
  1577  059C                     	;# 
  1578  059D                     	;# 
  1579  059D                     	;# 
  1580  059E                     	;# 
  1581  059F                     	;# 
  1582  060C                     	;# 
  1583  060C                     	;# 
  1584  060D                     	;# 
  1585  060D                     	;# 
  1586  060E                     	;# 
  1587  060F                     	;# 
  1588  0610                     	;# 
  1589  0611                     	;# 
  1590  0612                     	;# 
  1591  0613                     	;# 
  1592  0614                     	;# 
  1593  0616                     	;# 
  1594  0616                     	;# 
  1595  0617                     	;# 
  1596  0617                     	;# 
  1597  0618                     	;# 
  1598  0619                     	;# 
  1599  061A                     	;# 
  1600  061B                     	;# 
  1601  061C                     	;# 
  1602  061D                     	;# 
  1603  061E                     	;# 
  1604  070C                     	;# 
  1605  070D                     	;# 
  1606  070E                     	;# 
  1607  070F                     	;# 
  1608  0710                     	;# 
  1609  0711                     	;# 
  1610  0712                     	;# 
  1611  0713                     	;# 
  1612  0714                     	;# 
  1613  0716                     	;# 
  1614  0717                     	;# 
  1615  0718                     	;# 
  1616  0719                     	;# 
  1617  071A                     	;# 
  1618  071B                     	;# 
  1619  071C                     	;# 
  1620  071D                     	;# 
  1621  071E                     	;# 
  1622  0796                     	;# 
  1623  0797                     	;# 
  1624  0798                     	;# 
  1625  0799                     	;# 
  1626  079A                     	;# 
  1627  079B                     	;# 
  1628  079C                     	;# 
  1629  079D                     	;# 
  1630  080C                     	;# 
  1631  080D                     	;# 
  1632  080E                     	;# 
  1633  080F                     	;# 
  1634  0810                     	;# 
  1635  0811                     	;# 
  1636  0812                     	;# 
  1637  0813                     	;# 
  1638  0814                     	;# 
  1639  081A                     	;# 
  1640  081A                     	;# 
  1641  081B                     	;# 
  1642  081C                     	;# 
  1643  081C                     	;# 
  1644  081D                     	;# 
  1645  081E                     	;# 
  1646  081F                     	;# 
  1647  088C                     	;# 
  1648  088D                     	;# 
  1649  088E                     	;# 
  1650  088F                     	;# 
  1651  0890                     	;# 
  1652  0891                     	;# 
  1653  0892                     	;# 
  1654  0893                     	;# 
  1655  0895                     	;# 
  1656  0896                     	;# 
  1657  0897                     	;# 
  1658  0898                     	;# 
  1659  0899                     	;# 
  1660  089A                     	;# 
  1661  089B                     	;# 
  1662  090C                     	;# 
  1663  090E                     	;# 
  1664  090F                     	;# 
  1665  091F                     	;# 
  1666  098F                     	;# 
  1667  098F                     	;# 
  1668  0990                     	;# 
  1669  0991                     	;# 
  1670  0992                     	;# 
  1671  0993                     	;# 
  1672  0994                     	;# 
  1673  0995                     	;# 
  1674  0996                     	;# 
  1675  0997                     	;# 
  1676  1E0F                     	;# 
  1677  1E10                     	;# 
  1678  1E11                     	;# 
  1679  1E12                     	;# 
  1680  1E13                     	;# 
  1681  1E14                     	;# 
  1682  1E15                     	;# 
  1683  1E16                     	;# 
  1684  1E17                     	;# 
  1685  1E18                     	;# 
  1686  1E19                     	;# 
  1687  1E1A                     	;# 
  1688  1E1B                     	;# 
  1689  1E1C                     	;# 
  1690  1E1D                     	;# 
  1691  1E1E                     	;# 
  1692  1E1F                     	;# 
  1693  1E20                     	;# 
  1694  1E21                     	;# 
  1695  1E22                     	;# 
  1696  1E23                     	;# 
  1697  1E24                     	;# 
  1698  1E25                     	;# 
  1699  1E26                     	;# 
  1700  1E27                     	;# 
  1701  1E28                     	;# 
  1702  1E29                     	;# 
  1703  1E2A                     	;# 
  1704  1E2B                     	;# 
  1705  1E2C                     	;# 
  1706  1E2D                     	;# 
  1707  1E2E                     	;# 
  1708  1E2F                     	;# 
  1709  1E30                     	;# 
  1710  1E31                     	;# 
  1711  1E32                     	;# 
  1712  1E33                     	;# 
  1713  1E34                     	;# 
  1714  1E35                     	;# 
  1715  1E36                     	;# 
  1716  1E37                     	;# 
  1717  1E8F                     	;# 
  1718  1E90                     	;# 
  1719  1E91                     	;# 
  1720  1E92                     	;# 
  1721  1E93                     	;# 
  1722  1E94                     	;# 
  1723  1E95                     	;# 
  1724  1E96                     	;# 
  1725  1E97                     	;# 
  1726  1E9C                     	;# 
  1727  1E9D                     	;# 
  1728  1E9E                     	;# 
  1729  1EA1                     	;# 
  1730  1EA2                     	;# 
  1731  1EA3                     	;# 
  1732  1EA4                     	;# 
  1733  1EA9                     	;# 
  1734  1EAA                     	;# 
  1735  1EB1                     	;# 
  1736  1EB2                     	;# 
  1737  1EB8                     	;# 
  1738  1EB9                     	;# 
  1739  1EBA                     	;# 
  1740  1EBB                     	;# 
  1741  1EBC                     	;# 
  1742  1EBD                     	;# 
  1743  1EBE                     	;# 
  1744  1EC3                     	;# 
  1745  1EC5                     	;# 
  1746  1EC6                     	;# 
  1747  1EC7                     	;# 
  1748  1EC8                     	;# 
  1749  1EC9                     	;# 
  1750  1ECA                     	;# 
  1751  1ECB                     	;# 
  1752  1ECC                     	;# 
  1753  1F10                     	;# 
  1754  1F11                     	;# 
  1755  1F12                     	;# 
  1756  1F14                     	;# 
  1757  1F15                     	;# 
  1758  1F20                     	;# 
  1759  1F21                     	;# 
  1760  1F22                     	;# 
  1761  1F23                     	;# 
  1762  1F24                     	;# 
  1763  1F25                     	;# 
  1764  1F38                     	;# 
  1765  1F39                     	;# 
  1766  1F3A                     	;# 
  1767  1F3B                     	;# 
  1768  1F3C                     	;# 
  1769  1F3D                     	;# 
  1770  1F3E                     	;# 
  1771  1F3F                     	;# 
  1772  1F4E                     	;# 
  1773  1F4F                     	;# 
  1774  1F50                     	;# 
  1775  1F51                     	;# 
  1776  1F52                     	;# 
  1777  1F53                     	;# 
  1778  1F54                     	;# 
  1779  1F55                     	;# 
  1780  1FE4                     	;# 
  1781  1FE5                     	;# 
  1782  1FE6                     	;# 
  1783  1FE7                     	;# 
  1784  1FE8                     	;# 
  1785  1FE8                     	;# 
  1786  1FE9                     	;# 
  1787  1FEA                     	;# 
  1788  1FEB                     	;# 
  1789  1FED                     	;# 
  1790  1FEE                     	;# 
  1791  1FEF                     	;# 
  1792  0000                     	;# 
  1793  0001                     	;# 
  1794  0002                     	;# 
  1795  0003                     	;# 
  1796  0004                     	;# 
  1797  0005                     	;# 
  1798  0006                     	;# 
  1799  0007                     	;# 
  1800  0008                     	;# 
  1801  0009                     	;# 
  1802  000A                     	;# 
  1803  000B                     	;# 
  1804  000C                     	;# 
  1805  000E                     	;# 
  1806  0012                     	;# 
  1807  0014                     	;# 
  1808  0018                     	;# 
  1809  001A                     	;# 
  1810  008C                     	;# 
  1811  008C                     	;# 
  1812  008D                     	;# 
  1813  008E                     	;# 
  1814  008E                     	;# 
  1815  008F                     	;# 
  1816  0090                     	;# 
  1817  0090                     	;# 
  1818  0091                     	;# 
  1819  0092                     	;# 
  1820  0092                     	;# 
  1821  0093                     	;# 
  1822  0094                     	;# 
  1823  0094                     	;# 
  1824  0095                     	;# 
  1825  0096                     	;# 
  1826  0096                     	;# 
  1827  0097                     	;# 
  1828  0098                     	;# 
  1829  0099                     	;# 
  1830  009A                     	;# 
  1831  009B                     	;# 
  1832  009B                     	;# 
  1833  009C                     	;# 
  1834  009D                     	;# 
  1835  009D                     	;# 
  1836  009E                     	;# 
  1837  009F                     	;# 
  1838  010C                     	;# 
  1839  010C                     	;# 
  1840  010D                     	;# 
  1841  010E                     	;# 
  1842  010F                     	;# 
  1843  010F                     	;# 
  1844  0110                     	;# 
  1845  0111                     	;# 
  1846  0112                     	;# 
  1847  0113                     	;# 
  1848  0114                     	;# 
  1849  0115                     	;# 
  1850  0116                     	;# 
  1851  0117                     	;# 
  1852  0118                     	;# 
  1853  0119                     	;# 
  1854  0119                     	;# 
  1855  0119                     	;# 
  1856  011A                     	;# 
  1857  011A                     	;# 
  1858  011A                     	;# 
  1859  011B                     	;# 
  1860  011B                     	;# 
  1861  011B                     	;# 
  1862  011B                     	;# 
  1863  011B                     	;# 
  1864  011C                     	;# 
  1865  011C                     	;# 
  1866  011C                     	;# 
  1867  011D                     	;# 
  1868  011D                     	;# 
  1869  011D                     	;# 
  1870  011E                     	;# 
  1871  011E                     	;# 
  1872  011E                     	;# 
  1873  011F                     	;# 
  1874  011F                     	;# 
  1875  011F                     	;# 
  1876  011F                     	;# 
  1877  011F                     	;# 
  1878  018C                     	;# 
  1879  018D                     	;# 
  1880  018E                     	;# 
  1881  018F                     	;# 
  1882  0190                     	;# 
  1883  0191                     	;# 
  1884  0192                     	;# 
  1885  0196                     	;# 
  1886  0197                     	;# 
  1887  0198                     	;# 
  1888  0199                     	;# 
  1889  019A                     	;# 
  1890  019B                     	;# 
  1891  019C                     	;# 
  1892  020C                     	;# 
  1893  020D                     	;# 
  1894  020E                     	;# 
  1895  020E                     	;# 
  1896  020F                     	;# 
  1897  020F                     	;# 
  1898  0210                     	;# 
  1899  0210                     	;# 
  1900  0211                     	;# 
  1901  0211                     	;# 
  1902  0212                     	;# 
  1903  0213                     	;# 
  1904  0214                     	;# 
  1905  0214                     	;# 
  1906  0215                     	;# 
  1907  0215                     	;# 
  1908  0216                     	;# 
  1909  0216                     	;# 
  1910  0217                     	;# 
  1911  0217                     	;# 
  1912  0218                     	;# 
  1913  0219                     	;# 
  1914  021A                     	;# 
  1915  021A                     	;# 
  1916  021B                     	;# 
  1917  021B                     	;# 
  1918  021C                     	;# 
  1919  021C                     	;# 
  1920  021D                     	;# 
  1921  021D                     	;# 
  1922  021E                     	;# 
  1923  021F                     	;# 
  1924  028C                     	;# 
  1925  028C                     	;# 
  1926  028D                     	;# 
  1927  028D                     	;# 
  1928  028E                     	;# 
  1929  028F                     	;# 
  1930  0290                     	;# 
  1931  0291                     	;# 
  1932  0292                     	;# 
  1933  0292                     	;# 
  1934  0293                     	;# 
  1935  0293                     	;# 
  1936  0294                     	;# 
  1937  0295                     	;# 
  1938  0296                     	;# 
  1939  0297                     	;# 
  1940  0298                     	;# 
  1941  0298                     	;# 
  1942  0299                     	;# 
  1943  0299                     	;# 
  1944  029A                     	;# 
  1945  029B                     	;# 
  1946  029C                     	;# 
  1947  029D                     	;# 
  1948  029F                     	;# 
  1949  030C                     	;# 
  1950  030C                     	;# 
  1951  030D                     	;# 
  1952  030E                     	;# 
  1953  030F                     	;# 
  1954  0310                     	;# 
  1955  0310                     	;# 
  1956  0311                     	;# 
  1957  0312                     	;# 
  1958  0313                     	;# 
  1959  0314                     	;# 
  1960  0314                     	;# 
  1961  0315                     	;# 
  1962  0316                     	;# 
  1963  0317                     	;# 
  1964  0318                     	;# 
  1965  0318                     	;# 
  1966  0319                     	;# 
  1967  031A                     	;# 
  1968  031B                     	;# 
  1969  038C                     	;# 
  1970  038C                     	;# 
  1971  038D                     	;# 
  1972  038E                     	;# 
  1973  0390                     	;# 
  1974  0390                     	;# 
  1975  0391                     	;# 
  1976  0392                     	;# 
  1977  048C                     	;# 
  1978  048C                     	;# 
  1979  048D                     	;# 
  1980  048E                     	;# 
  1981  048F                     	;# 
  1982  048F                     	;# 
  1983  0490                     	;# 
  1984  0491                     	;# 
  1985  0492                     	;# 
  1986  0492                     	;# 
  1987  0493                     	;# 
  1988  0494                     	;# 
  1989  0495                     	;# 
  1990  0495                     	;# 
  1991  0496                     	;# 
  1992  0497                     	;# 
  1993  0498                     	;# 
  1994  0499                     	;# 
  1995  049A                     	;# 
  1996  049B                     	;# 
  1997  049C                     	;# 
  1998  049D                     	;# 
  1999  058C                     	;# 
  2000  058C                     	;# 
  2001  058D                     	;# 
  2002  058E                     	;# 
  2003  058F                     	;# 
  2004  058F                     	;# 
  2005  0590                     	;# 
  2006  0591                     	;# 
  2007  0592                     	;# 
  2008  0593                     	;# 
  2009  059C                     	;# 
  2010  059C                     	;# 
  2011  059D                     	;# 
  2012  059D                     	;# 
  2013  059E                     	;# 
  2014  059F                     	;# 
  2015  060C                     	;# 
  2016  060C                     	;# 
  2017  060D                     	;# 
  2018  060D                     	;# 
  2019  060E                     	;# 
  2020  060F                     	;# 
  2021  0610                     	;# 
  2022  0611                     	;# 
  2023  0612                     	;# 
  2024  0613                     	;# 
  2025  0614                     	;# 
  2026  0616                     	;# 
  2027  0616                     	;# 
  2028  0617                     	;# 
  2029  0617                     	;# 
  2030  0618                     	;# 
  2031  0619                     	;# 
  2032  061A                     	;# 
  2033  061B                     	;# 
  2034  061C                     	;# 
  2035  061D                     	;# 
  2036  061E                     	;# 
  2037  070C                     	;# 
  2038  070D                     	;# 
  2039  070E                     	;# 
  2040  070F                     	;# 
  2041  0710                     	;# 
  2042  0711                     	;# 
  2043  0712                     	;# 
  2044  0713                     	;# 
  2045  0714                     	;# 
  2046  0716                     	;# 
  2047  0717                     	;# 
  2048  0718                     	;# 
  2049  0719                     	;# 
  2050  071A                     	;# 
  2051  071B                     	;# 
  2052  071C                     	;# 
  2053  071D                     	;# 
  2054  071E                     	;# 
  2055  0796                     	;# 
  2056  0797                     	;# 
  2057  0798                     	;# 
  2058  0799                     	;# 
  2059  079A                     	;# 
  2060  079B                     	;# 
  2061  079C                     	;# 
  2062  079D                     	;# 
  2063  080C                     	;# 
  2064  080D                     	;# 
  2065  080E                     	;# 
  2066  080F                     	;# 
  2067  0810                     	;# 
  2068  0811                     	;# 
  2069  0812                     	;# 
  2070  0813                     	;# 
  2071  0814                     	;# 
  2072  081A                     	;# 
  2073  081A                     	;# 
  2074  081B                     	;# 
  2075  081C                     	;# 
  2076  081C                     	;# 
  2077  081D                     	;# 
  2078  081E                     	;# 
  2079  081F                     	;# 
  2080  088C                     	;# 
  2081  088D                     	;# 
  2082  088E                     	;# 
  2083  088F                     	;# 
  2084  0890                     	;# 
  2085  0891                     	;# 
  2086  0892                     	;# 
  2087  0893                     	;# 
  2088  0895                     	;# 
  2089  0896                     	;# 
  2090  0897                     	;# 
  2091  0898                     	;# 
  2092  0899                     	;# 
  2093  089A                     	;# 
  2094  089B                     	;# 
  2095  090C                     	;# 
  2096  090E                     	;# 
  2097  090F                     	;# 
  2098  091F                     	;# 
  2099  098F                     	;# 
  2100  098F                     	;# 
  2101  0990                     	;# 
  2102  0991                     	;# 
  2103  0992                     	;# 
  2104  0993                     	;# 
  2105  0994                     	;# 
  2106  0995                     	;# 
  2107  0996                     	;# 
  2108  0997                     	;# 
  2109  1E0F                     	;# 
  2110  1E10                     	;# 
  2111  1E11                     	;# 
  2112  1E12                     	;# 
  2113  1E13                     	;# 
  2114  1E14                     	;# 
  2115  1E15                     	;# 
  2116  1E16                     	;# 
  2117  1E17                     	;# 
  2118  1E18                     	;# 
  2119  1E19                     	;# 
  2120  1E1A                     	;# 
  2121  1E1B                     	;# 
  2122  1E1C                     	;# 
  2123  1E1D                     	;# 
  2124  1E1E                     	;# 
  2125  1E1F                     	;# 
  2126  1E20                     	;# 
  2127  1E21                     	;# 
  2128  1E22                     	;# 
  2129  1E23                     	;# 
  2130  1E24                     	;# 
  2131  1E25                     	;# 
  2132  1E26                     	;# 
  2133  1E27                     	;# 
  2134  1E28                     	;# 
  2135  1E29                     	;# 
  2136  1E2A                     	;# 
  2137  1E2B                     	;# 
  2138  1E2C                     	;# 
  2139  1E2D                     	;# 
  2140  1E2E                     	;# 
  2141  1E2F                     	;# 
  2142  1E30                     	;# 
  2143  1E31                     	;# 
  2144  1E32                     	;# 
  2145  1E33                     	;# 
  2146  1E34                     	;# 
  2147  1E35                     	;# 
  2148  1E36                     	;# 
  2149  1E37                     	;# 
  2150  1E8F                     	;# 
  2151  1E90                     	;# 
  2152  1E91                     	;# 
  2153  1E92                     	;# 
  2154  1E93                     	;# 
  2155  1E94                     	;# 
  2156  1E95                     	;# 
  2157  1E96                     	;# 
  2158  1E97                     	;# 
  2159  1E9C                     	;# 
  2160  1E9D                     	;# 
  2161  1E9E                     	;# 
  2162  1EA1                     	;# 
  2163  1EA2                     	;# 
  2164  1EA3                     	;# 
  2165  1EA4                     	;# 
  2166  1EA9                     	;# 
  2167  1EAA                     	;# 
  2168  1EB1                     	;# 
  2169  1EB2                     	;# 
  2170  1EB8                     	;# 
  2171  1EB9                     	;# 
  2172  1EBA                     	;# 
  2173  1EBB                     	;# 
  2174  1EBC                     	;# 
  2175  1EBD                     	;# 
  2176  1EBE                     	;# 
  2177  1EC3                     	;# 
  2178  1EC5                     	;# 
  2179  1EC6                     	;# 
  2180  1EC7                     	;# 
  2181  1EC8                     	;# 
  2182  1EC9                     	;# 
  2183  1ECA                     	;# 
  2184  1ECB                     	;# 
  2185  1ECC                     	;# 
  2186  1F10                     	;# 
  2187  1F11                     	;# 
  2188  1F12                     	;# 
  2189  1F14                     	;# 
  2190  1F15                     	;# 
  2191  1F20                     	;# 
  2192  1F21                     	;# 
  2193  1F22                     	;# 
  2194  1F23                     	;# 
  2195  1F24                     	;# 
  2196  1F25                     	;# 
  2197  1F38                     	;# 
  2198  1F39                     	;# 
  2199  1F3A                     	;# 
  2200  1F3B                     	;# 
  2201  1F3C                     	;# 
  2202  1F3D                     	;# 
  2203  1F3E                     	;# 
  2204  1F3F                     	;# 
  2205  1F4E                     	;# 
  2206  1F4F                     	;# 
  2207  1F50                     	;# 
  2208  1F51                     	;# 
  2209  1F52                     	;# 
  2210  1F53                     	;# 
  2211  1F54                     	;# 
  2212  1F55                     	;# 
  2213  1FE4                     	;# 
  2214  1FE5                     	;# 
  2215  1FE6                     	;# 
  2216  1FE7                     	;# 
  2217  1FE8                     	;# 
  2218  1FE8                     	;# 
  2219  1FE9                     	;# 
  2220  1FEA                     	;# 
  2221  1FEB                     	;# 
  2222  1FED                     	;# 
  2223  1FEE                     	;# 
  2224  1FEF                     	;# 
  2225  0000                     	;# 
  2226  0001                     	;# 
  2227  0002                     	;# 
  2228  0003                     	;# 
  2229  0004                     	;# 
  2230  0005                     	;# 
  2231  0006                     	;# 
  2232  0007                     	;# 
  2233  0008                     	;# 
  2234  0009                     	;# 
  2235  000A                     	;# 
  2236  000B                     	;# 
  2237  000C                     	;# 
  2238  000E                     	;# 
  2239  0012                     	;# 
  2240  0014                     	;# 
  2241  0018                     	;# 
  2242  001A                     	;# 
  2243  008C                     	;# 
  2244  008C                     	;# 
  2245  008D                     	;# 
  2246  008E                     	;# 
  2247  008E                     	;# 
  2248  008F                     	;# 
  2249  0090                     	;# 
  2250  0090                     	;# 
  2251  0091                     	;# 
  2252  0092                     	;# 
  2253  0092                     	;# 
  2254  0093                     	;# 
  2255  0094                     	;# 
  2256  0094                     	;# 
  2257  0095                     	;# 
  2258  0096                     	;# 
  2259  0096                     	;# 
  2260  0097                     	;# 
  2261  0098                     	;# 
  2262  0099                     	;# 
  2263  009A                     	;# 
  2264  009B                     	;# 
  2265  009B                     	;# 
  2266  009C                     	;# 
  2267  009D                     	;# 
  2268  009D                     	;# 
  2269  009E                     	;# 
  2270  009F                     	;# 
  2271  010C                     	;# 
  2272  010C                     	;# 
  2273  010D                     	;# 
  2274  010E                     	;# 
  2275  010F                     	;# 
  2276  010F                     	;# 
  2277  0110                     	;# 
  2278  0111                     	;# 
  2279  0112                     	;# 
  2280  0113                     	;# 
  2281  0114                     	;# 
  2282  0115                     	;# 
  2283  0116                     	;# 
  2284  0117                     	;# 
  2285  0118                     	;# 
  2286  0119                     	;# 
  2287  0119                     	;# 
  2288  0119                     	;# 
  2289  011A                     	;# 
  2290  011A                     	;# 
  2291  011A                     	;# 
  2292  011B                     	;# 
  2293  011B                     	;# 
  2294  011B                     	;# 
  2295  011B                     	;# 
  2296  011B                     	;# 
  2297  011C                     	;# 
  2298  011C                     	;# 
  2299  011C                     	;# 
  2300  011D                     	;# 
  2301  011D                     	;# 
  2302  011D                     	;# 
  2303  011E                     	;# 
  2304  011E                     	;# 
  2305  011E                     	;# 
  2306  011F                     	;# 
  2307  011F                     	;# 
  2308  011F                     	;# 
  2309  011F                     	;# 
  2310  011F                     	;# 
  2311  018C                     	;# 
  2312  018D                     	;# 
  2313  018E                     	;# 
  2314  018F                     	;# 
  2315  0190                     	;# 
  2316  0191                     	;# 
  2317  0192                     	;# 
  2318  0196                     	;# 
  2319  0197                     	;# 
  2320  0198                     	;# 
  2321  0199                     	;# 
  2322  019A                     	;# 
  2323  019B                     	;# 
  2324  019C                     	;# 
  2325  020C                     	;# 
  2326  020D                     	;# 
  2327  020E                     	;# 
  2328  020E                     	;# 
  2329  020F                     	;# 
  2330  020F                     	;# 
  2331  0210                     	;# 
  2332  0210                     	;# 
  2333  0211                     	;# 
  2334  0211                     	;# 
  2335  0212                     	;# 
  2336  0213                     	;# 
  2337  0214                     	;# 
  2338  0214                     	;# 
  2339  0215                     	;# 
  2340  0215                     	;# 
  2341  0216                     	;# 
  2342  0216                     	;# 
  2343  0217                     	;# 
  2344  0217                     	;# 
  2345  0218                     	;# 
  2346  0219                     	;# 
  2347  021A                     	;# 
  2348  021A                     	;# 
  2349  021B                     	;# 
  2350  021B                     	;# 
  2351  021C                     	;# 
  2352  021C                     	;# 
  2353  021D                     	;# 
  2354  021D                     	;# 
  2355  021E                     	;# 
  2356  021F                     	;# 
  2357  028C                     	;# 
  2358  028C                     	;# 
  2359  028D                     	;# 
  2360  028D                     	;# 
  2361  028E                     	;# 
  2362  028F                     	;# 
  2363  0290                     	;# 
  2364  0291                     	;# 
  2365  0292                     	;# 
  2366  0292                     	;# 
  2367  0293                     	;# 
  2368  0293                     	;# 
  2369  0294                     	;# 
  2370  0295                     	;# 
  2371  0296                     	;# 
  2372  0297                     	;# 
  2373  0298                     	;# 
  2374  0298                     	;# 
  2375  0299                     	;# 
  2376  0299                     	;# 
  2377  029A                     	;# 
  2378  029B                     	;# 
  2379  029C                     	;# 
  2380  029D                     	;# 
  2381  029F                     	;# 
  2382  030C                     	;# 
  2383  030C                     	;# 
  2384  030D                     	;# 
  2385  030E                     	;# 
  2386  030F                     	;# 
  2387  0310                     	;# 
  2388  0310                     	;# 
  2389  0311                     	;# 
  2390  0312                     	;# 
  2391  0313                     	;# 
  2392  0314                     	;# 
  2393  0314                     	;# 
  2394  0315                     	;# 
  2395  0316                     	;# 
  2396  0317                     	;# 
  2397  0318                     	;# 
  2398  0318                     	;# 
  2399  0319                     	;# 
  2400  031A                     	;# 
  2401  031B                     	;# 
  2402  038C                     	;# 
  2403  038C                     	;# 
  2404  038D                     	;# 
  2405  038E                     	;# 
  2406  0390                     	;# 
  2407  0390                     	;# 
  2408  0391                     	;# 
  2409  0392                     	;# 
  2410  048C                     	;# 
  2411  048C                     	;# 
  2412  048D                     	;# 
  2413  048E                     	;# 
  2414  048F                     	;# 
  2415  048F                     	;# 
  2416  0490                     	;# 
  2417  0491                     	;# 
  2418  0492                     	;# 
  2419  0492                     	;# 
  2420  0493                     	;# 
  2421  0494                     	;# 
  2422  0495                     	;# 
  2423  0495                     	;# 
  2424  0496                     	;# 
  2425  0497                     	;# 
  2426  0498                     	;# 
  2427  0499                     	;# 
  2428  049A                     	;# 
  2429  049B                     	;# 
  2430  049C                     	;# 
  2431  049D                     	;# 
  2432  058C                     	;# 
  2433  058C                     	;# 
  2434  058D                     	;# 
  2435  058E                     	;# 
  2436  058F                     	;# 
  2437  058F                     	;# 
  2438  0590                     	;# 
  2439  0591                     	;# 
  2440  0592                     	;# 
  2441  0593                     	;# 
  2442  059C                     	;# 
  2443  059C                     	;# 
  2444  059D                     	;# 
  2445  059D                     	;# 
  2446  059E                     	;# 
  2447  059F                     	;# 
  2448  060C                     	;# 
  2449  060C                     	;# 
  2450  060D                     	;# 
  2451  060D                     	;# 
  2452  060E                     	;# 
  2453  060F                     	;# 
  2454  0610                     	;# 
  2455  0611                     	;# 
  2456  0612                     	;# 
  2457  0613                     	;# 
  2458  0614                     	;# 
  2459  0616                     	;# 
  2460  0616                     	;# 
  2461  0617                     	;# 
  2462  0617                     	;# 
  2463  0618                     	;# 
  2464  0619                     	;# 
  2465  061A                     	;# 
  2466  061B                     	;# 
  2467  061C                     	;# 
  2468  061D                     	;# 
  2469  061E                     	;# 
  2470  070C                     	;# 
  2471  070D                     	;# 
  2472  070E                     	;# 
  2473  070F                     	;# 
  2474  0710                     	;# 
  2475  0711                     	;# 
  2476  0712                     	;# 
  2477  0713                     	;# 
  2478  0714                     	;# 
  2479  0716                     	;# 
  2480  0717                     	;# 
  2481  0718                     	;# 
  2482  0719                     	;# 
  2483  071A                     	;# 
  2484  071B                     	;# 
  2485  071C                     	;# 
  2486  071D                     	;# 
  2487  071E                     	;# 
  2488  0796                     	;# 
  2489  0797                     	;# 
  2490  0798                     	;# 
  2491  0799                     	;# 
  2492  079A                     	;# 
  2493  079B                     	;# 
  2494  079C                     	;# 
  2495  079D                     	;# 
  2496  080C                     	;# 
  2497  080D                     	;# 
  2498  080E                     	;# 
  2499  080F                     	;# 
  2500  0810                     	;# 
  2501  0811                     	;# 
  2502  0812                     	;# 
  2503  0813                     	;# 
  2504  0814                     	;# 
  2505  081A                     	;# 
  2506  081A                     	;# 
  2507  081B                     	;# 
  2508  081C                     	;# 
  2509  081C                     	;# 
  2510  081D                     	;# 
  2511  081E                     	;# 
  2512  081F                     	;# 
  2513  088C                     	;# 
  2514  088D                     	;# 
  2515  088E                     	;# 
  2516  088F                     	;# 
  2517  0890                     	;# 
  2518  0891                     	;# 
  2519  0892                     	;# 
  2520  0893                     	;# 
  2521  0895                     	;# 
  2522  0896                     	;# 
  2523  0897                     	;# 
  2524  0898                     	;# 
  2525  0899                     	;# 
  2526  089A                     	;# 
  2527  089B                     	;# 
  2528  090C                     	;# 
  2529  090E                     	;# 
  2530  090F                     	;# 
  2531  091F                     	;# 
  2532  098F                     	;# 
  2533  098F                     	;# 
  2534  0990                     	;# 
  2535  0991                     	;# 
  2536  0992                     	;# 
  2537  0993                     	;# 
  2538  0994                     	;# 
  2539  0995                     	;# 
  2540  0996                     	;# 
  2541  0997                     	;# 
  2542  1E0F                     	;# 
  2543  1E10                     	;# 
  2544  1E11                     	;# 
  2545  1E12                     	;# 
  2546  1E13                     	;# 
  2547  1E14                     	;# 
  2548  1E15                     	;# 
  2549  1E16                     	;# 
  2550  1E17                     	;# 
  2551  1E18                     	;# 
  2552  1E19                     	;# 
  2553  1E1A                     	;# 
  2554  1E1B                     	;# 
  2555  1E1C                     	;# 
  2556  1E1D                     	;# 
  2557  1E1E                     	;# 
  2558  1E1F                     	;# 
  2559  1E20                     	;# 
  2560  1E21                     	;# 
  2561  1E22                     	;# 
  2562  1E23                     	;# 
  2563  1E24                     	;# 
  2564  1E25                     	;# 
  2565  1E26                     	;# 
  2566  1E27                     	;# 
  2567  1E28                     	;# 
  2568  1E29                     	;# 
  2569  1E2A                     	;# 
  2570  1E2B                     	;# 
  2571  1E2C                     	;# 
  2572  1E2D                     	;# 
  2573  1E2E                     	;# 
  2574  1E2F                     	;# 
  2575  1E30                     	;# 
  2576  1E31                     	;# 
  2577  1E32                     	;# 
  2578  1E33                     	;# 
  2579  1E34                     	;# 
  2580  1E35                     	;# 
  2581  1E36                     	;# 
  2582  1E37                     	;# 
  2583  1E8F                     	;# 
  2584  1E90                     	;# 
  2585  1E91                     	;# 
  2586  1E92                     	;# 
  2587  1E93                     	;# 
  2588  1E94                     	;# 
  2589  1E95                     	;# 
  2590  1E96                     	;# 
  2591  1E97                     	;# 
  2592  1E9C                     	;# 
  2593  1E9D                     	;# 
  2594  1E9E                     	;# 
  2595  1EA1                     	;# 
  2596  1EA2                     	;# 
  2597  1EA3                     	;# 
  2598  1EA4                     	;# 
  2599  1EA9                     	;# 
  2600  1EAA                     	;# 
  2601  1EB1                     	;# 
  2602  1EB2                     	;# 
  2603  1EB8                     	;# 
  2604  1EB9                     	;# 
  2605  1EBA                     	;# 
  2606  1EBB                     	;# 
  2607  1EBC                     	;# 
  2608  1EBD                     	;# 
  2609  1EBE                     	;# 
  2610  1EC3                     	;# 
  2611  1EC5                     	;# 
  2612  1EC6                     	;# 
  2613  1EC7                     	;# 
  2614  1EC8                     	;# 
  2615  1EC9                     	;# 
  2616  1ECA                     	;# 
  2617  1ECB                     	;# 
  2618  1ECC                     	;# 
  2619  1F10                     	;# 
  2620  1F11                     	;# 
  2621  1F12                     	;# 
  2622  1F14                     	;# 
  2623  1F15                     	;# 
  2624  1F20                     	;# 
  2625  1F21                     	;# 
  2626  1F22                     	;# 
  2627  1F23                     	;# 
  2628  1F24                     	;# 
  2629  1F25                     	;# 
  2630  1F38                     	;# 
  2631  1F39                     	;# 
  2632  1F3A                     	;# 
  2633  1F3B                     	;# 
  2634  1F3C                     	;# 
  2635  1F3D                     	;# 
  2636  1F3E                     	;# 
  2637  1F3F                     	;# 
  2638  1F4E                     	;# 
  2639  1F4F                     	;# 
  2640  1F50                     	;# 
  2641  1F51                     	;# 
  2642  1F52                     	;# 
  2643  1F53                     	;# 
  2644  1F54                     	;# 
  2645  1F55                     	;# 
  2646  1FE4                     	;# 
  2647  1FE5                     	;# 
  2648  1FE6                     	;# 
  2649  1FE7                     	;# 
  2650  1FE8                     	;# 
  2651  1FE8                     	;# 
  2652  1FE9                     	;# 
  2653  1FEA                     	;# 
  2654  1FEB                     	;# 
  2655  1FED                     	;# 
  2656  1FEE                     	;# 
  2657  1FEF                     	;# 
  2658  0018                     _LATAbits	set	24
  2659  0014                     _TRISC	set	20
  2660  0012                     _TRISA	set	18
  2661  001A                     _LATC	set	26
  2662  0018                     _LATA	set	24
  2663  000B                     _INTCONbits	set	11
  2664  005F                     _GIE	set	95
  2665  018C                     _SSP1BUF	set	396
  2666  0191                     _SSP1CON2bits	set	401
  2667  0190                     _SSP1CON1bits	set	400
  2668  018D                     _SSP1ADD	set	397
  2669  0192                     _SSP1CON3	set	402
  2670  0190                     _SSP1CON1	set	400
  2671  018F                     _SSP1STAT	set	399
  2672  070F                     _PIR3bits	set	1807
  2673  0719                     _PIE3bits	set	1817
  2674  079D                     _PMD7	set	1949
  2675  079C                     _PMD6	set	1948
  2676  079B                     _PMD5	set	1947
  2677  079A                     _PMD4	set	1946
  2678  0799                     _PMD3	set	1945
  2679  0798                     _PMD2	set	1944
  2680  0797                     _PMD1	set	1943
  2681  0796                     _PMD0	set	1942
  2682  0892                     _OSCTUNE	set	2194
  2683  0893                     _OSCFRQ	set	2195
  2684  0891                     _OSCEN	set	2193
  2685  088F                     _OSCCON3	set	2191
  2686  088D                     _OSCCON1	set	2189
  2687  1EC6                     _SSP1DATPPS	set	7878
  2688  1EC5                     _SSP1CLKPPS	set	7877
  2689  1F21                     _RC1PPS	set	7969
  2690  1F20                     _RC0PPS	set	7968
  2691  1F52                     _INLVLC	set	8018
  2692  1F3C                     _INLVLA	set	7996
  2693  1F51                     _SLRCONC	set	8017
  2694  1F3B                     _SLRCONA	set	7995
  2695  1F50                     _ODCONC	set	8016
  2696  1F3A                     _ODCONA	set	7994
  2697  1F4F                     _WPUC	set	8015
  2698  1F39                     _WPUA	set	7993
  2699  1F38                     _ANSELA	set	7992
  2700  1F4E                     _ANSELC	set	8014
  2701                           
  2702                           ; #config settings
  2703  0000                     
  2704                           	psect	cinit
  2705  0019                     start_initialization:	
  2706  0019                     __initialization:	
  2707                           
  2708                           ; Clear objects allocated to COMMON
  2709  0019  01F0               	clrf	__pbssCOMMON& (0+127)
  2710  001A  01F1               	clrf	(__pbssCOMMON+1)& (0+127)
  2711  001B  01F2               	clrf	(__pbssCOMMON+2)& (0+127)
  2712  001C  01F3               	clrf	(__pbssCOMMON+3)& (0+127)
  2713  001D  01F4               	clrf	(__pbssCOMMON+4)& (0+127)
  2714  001E  01F5               	clrf	(__pbssCOMMON+5)& (0+127)
  2715                           
  2716                           ; Clear objects allocated to BANK0
  2717  001F  3034               	movlw	low __pbssBANK0
  2718  0020  0084               	movwf	4
  2719  0021  3000               	movlw	high __pbssBANK0
  2720  0022  0085               	movwf	5
  2721  0023  3013               	movlw	19
  2722  0024  3182  22B2         	fcall	clear_ram0
  2723  0026                     end_of_initialization:	
  2724                           ;End of C runtime variable initialization code
  2725                           
  2726  0026                     __end_of__initialization:	
  2727  0026  107E               	bcf	int$flags,0	;clear compiler interrupt flag (level 1)
  2728  0027  0140               	movlb	0
  2729  0028  3182  2AA0         	ljmp	_main	;jump to C main() function
  2730                           
  2731                           	psect	bssCOMMON
  2732  0070                     __pbssCOMMON:	
  2733  0070                     _p_i2c1_current:	
  2734  0070                     	ds	1
  2735  0071                     _p_i2c1_trb_current:	
  2736  0071                     	ds	1
  2737  0072                     _i2c1_trb_count:	
  2738  0072                     	ds	1
  2739  0073                     _i2c1_state:	
  2740  0073                     	ds	1
  2741  0074                     I2C1_ISR@i2c_address:	
  2742  0074                     	ds	2
  2743                           
  2744                           	psect	bssBANK0
  2745  0034                     __pbssBANK0:	
  2746  0034                     _i2c1_object:	
  2747  0034                     	ds	5
  2748  0039                     I2C1_ISR@i2c_10bit_address_restart:	
  2749  0039                     	ds	1
  2750  003A                     I2C1_ISR@i2c_bytes_left:	
  2751  003A                     	ds	1
  2752  003B                     I2C1_ISR@pi2c_buf_ptr:	
  2753  003B                     	ds	1
  2754  003C                     I2C1_MasterRead@trBlock:	
  2755  003C                     	ds	4
  2756  0040                     I2C1_MasterWrite@trBlock:	
  2757  0040                     	ds	4
  2758  0044                     _i2c1_tr_queue:	
  2759  0044                     	ds	3
  2760                           
  2761                           	psect	clrtext
  2762  02B2                     clear_ram0:	
  2763                           ;	Called with FSR0 containing the base address, and
  2764                           ;	WREG with the size to clear
  2765                           
  2766  02B2  0064               	clrwdt	;clear the watchdog before getting into this loop
  2767  02B3                     clrloop0:	
  2768  02B3  0180               	clrf	0	;clear RAM location pointed to by FSR
  2769  02B4  3101               	addfsr 0,1
  2770  02B5  0B89               	decfsz	9,f	;Have we reached the end of clearing yet?
  2771  02B6  2AB3               	goto	clrloop0	;have we reached the end yet?
  2772  02B7  3400               	retlw	0	;all done for this memory range, return
  2773                           
  2774                           	psect	cstackCOMMON
  2775  0076                     __pcstackCOMMON:	
  2776  0076                     ?_I2C1_BusCollisionISR:	
  2777  0076                     ??_I2C1_BusCollisionISR:	
  2778                           ; 1 bytes @ 0x0
  2779                           
  2780  0076                     ?_I2C1_ISR:	
  2781                           ; 1 bytes @ 0x0
  2782                           
  2783  0076                     ?_PMD_Initialize:	
  2784                           ; 1 bytes @ 0x0
  2785                           
  2786  0076                     ?_PIN_MANAGER_Initialize:	
  2787                           ; 1 bytes @ 0x0
  2788                           
  2789  0076                     ?_OSCILLATOR_Initialize:	
  2790                           ; 1 bytes @ 0x0
  2791                           
  2792  0076                     ?_I2C1_Initialize:	
  2793                           ; 1 bytes @ 0x0
  2794                           
  2795  0076                     ?_I2C1_Stop:	
  2796                           ; 1 bytes @ 0x0
  2797                           
  2798  0076                     ??_I2C1_Stop:	
  2799                           ; 1 bytes @ 0x0
  2800                           
  2801  0076                     ?_I2C1_FunctionComplete:	
  2802                           ; 1 bytes @ 0x0
  2803                           
  2804  0076                     ??_I2C1_FunctionComplete:	
  2805                           ; 1 bytes @ 0x0
  2806                           
  2807  0076                     ?_INTERRUPT_InterruptManager:	
  2808                           ; 1 bytes @ 0x0
  2809                           
  2810  0076                     ?_SYSTEM_Initialize:	
  2811                           ; 1 bytes @ 0x0
  2812                           
  2813  0076                     ?_WSLoop:	
  2814                           ; 1 bytes @ 0x0
  2815                           
  2816  0076                     ?_main:	
  2817                           ; 1 bytes @ 0x0
  2818                           
  2819                           
  2820                           ; 1 bytes @ 0x0
  2821  0076                     	ds	1
  2822  0077                     I2C1_Stop@completion_code:	
  2823                           
  2824                           ; 1 bytes @ 0x1
  2825  0077                     	ds	1
  2826  0078                     ??_I2C1_ISR:	
  2827                           
  2828                           ; 1 bytes @ 0x2
  2829  0078                     	ds	4
  2830  007C                     ??_INTERRUPT_InterruptManager:	
  2831                           
  2832                           	psect	cstackBANK0
  2833  0020                     __pcstackBANK0:	
  2834                           ; 1 bytes @ 0x6
  2835                           
  2836  0020                     ??_PMD_Initialize:	
  2837  0020                     ??_PIN_MANAGER_Initialize:	
  2838                           ; 1 bytes @ 0x0
  2839                           
  2840  0020                     ??_OSCILLATOR_Initialize:	
  2841                           ; 1 bytes @ 0x0
  2842                           
  2843  0020                     ??_I2C1_Initialize:	
  2844                           ; 1 bytes @ 0x0
  2845                           
  2846  0020                     ?_WS_Write:	
  2847                           ; 1 bytes @ 0x0
  2848                           
  2849  0020                     WS_Write@A:	
  2850                           ; 1 bytes @ 0x0
  2851                           
  2852                           
  2853                           ; 2 bytes @ 0x0
  2854  0020                     	ds	1
  2855  0021                     ??_SYSTEM_Initialize:	
  2856                           
  2857                           ; 1 bytes @ 0x1
  2858  0021                     	ds	1
  2859  0022                     ??_WS_Write:	
  2860  0022                     ?_WS_Word:	
  2861                           ; 1 bytes @ 0x2
  2862                           
  2863  0022                     WS_Word@B:	
  2864                           ; 1 bytes @ 0x2
  2865                           
  2866                           
  2867                           ; 1 bytes @ 0x2
  2868  0022                     	ds	1
  2869  0023                     WS_Word@C:	
  2870                           
  2871                           ; 1 bytes @ 0x3
  2872  0023                     	ds	1
  2873  0024                     ??_WS_Word:	
  2874                           
  2875                           ; 1 bytes @ 0x4
  2876  0024                     	ds	3
  2877  0027                     WS_Word@A:	
  2878                           
  2879                           ; 1 bytes @ 0x7
  2880  0027                     	ds	1
  2881  0028                     WS_Word@x:	
  2882                           
  2883                           ; 2 bytes @ 0x8
  2884  0028                     	ds	2
  2885  002A                     WS_Word@x_519:	
  2886                           
  2887                           ; 2 bytes @ 0xA
  2888  002A                     	ds	2
  2889  002C                     WS_Word@x_520:	
  2890                           
  2891                           ; 2 bytes @ 0xC
  2892  002C                     	ds	2
  2893  002E                     WS_Word@Bx:	
  2894                           
  2895                           ; 2 bytes @ 0xE
  2896  002E                     	ds	2
  2897  0030                     WS_Word@i:	
  2898                           
  2899                           ; 2 bytes @ 0x10
  2900  0030                     	ds	2
  2901  0032                     ??_WSLoop:	
  2902                           
  2903                           ; 1 bytes @ 0x12
  2904  0032                     	ds	2
  2905  0034                     ??_main:	
  2906                           
  2907                           	psect	maintext
  2908  02A0                     __pmaintext:	
  2909                           ; 1 bytes @ 0x14
  2910 ;;
  2911 ;;Main: autosize = 0, tempsize = 0, incstack = 0, save=0
  2912 ;;
  2913 ;; *************** function _main *****************
  2914 ;; Defined at:
  2915 ;;		line 147 in file "main.c"
  2916 ;; Parameters:    Size  Location     Type
  2917 ;;		None
  2918 ;; Auto vars:     Size  Location     Type
  2919 ;;		None
  2920 ;; Return value:  Size  Location     Type
  2921 ;;                  1    wreg      void 
  2922 ;; Registers used:
  2923 ;;		wreg, status,2, status,0, pclath, cstack
  2924 ;; Tracked objects:
  2925 ;;		On entry : B3F/0
  2926 ;;		On exit  : 0/0
  2927 ;;		Unchanged: 0/0
  2928 ;; Data sizes:     COMMON   BANK0   BANK1   BANK2   BANK3   BANK4   BANK5   BANK6   BANK7   BANK8   BANK9  BANK10  BANK1
      +1  BANK12  BANK13  BANK14  BANK15  BANK16  BANK17  BANK18  BANK19  BANK20  BANK21  BANK22  BANK23  BANK24  BANK25
  2929 ;;      Params:         0       0       0       0       0       0       0       0       0       0       0       0       
      +0       0       0       0       0       0       0       0       0       0       0       0       0       0       0
  2930 ;;      Locals:         0       0       0       0       0       0       0       0       0       0       0       0       
      +0       0       0       0       0       0       0       0       0       0       0       0       0       0       0
  2931 ;;      Temps:          0       0       0       0       0       0       0       0       0       0       0       0       
      +0       0       0       0       0       0       0       0       0       0       0       0       0       0       0
  2932 ;;      Totals:         0       0       0       0       0       0       0       0       0       0       0       0       
      +0       0       0       0       0       0       0       0       0       0       0       0       0       0       0
  2933 ;;Total ram usage:        0 bytes
  2934 ;; Hardware stack levels required when called:    6
  2935 ;; This function calls:
  2936 ;;		_SYSTEM_Initialize
  2937 ;;		_WSLoop
  2938 ;; This function is called by:
  2939 ;;		Startup code after reset
  2940 ;; This function uses a non-reentrant model
  2941 ;;
  2942                           
  2943                           
  2944                           ;psect for function _main
  2945  02A0                     _main:	
  2946                           
  2947                           ;main.c: 150: SYSTEM_Initialize();
  2948                           
  2949                           ;incstack = 0
  2950                           ; Regs used in _main: [wreg+status,2+status,0+pclath+cstack]
  2951  02A0  3182  228A  3182   	fcall	_SYSTEM_Initialize
  2952  02A3                     l1588:	
  2953                           
  2954                           ;main.c: 168: {;main.c: 169: GIE = 0;
  2955  02A3  138B               	bcf	11,7	;volatile
  2956                           
  2957                           ;main.c: 171: WSLoop();
  2958  02A4  3181  21C7  3182   	fcall	_WSLoop
  2959                           
  2960                           ;main.c: 174: GIE =1;
  2961  02A7  178B               	bsf	11,7	;volatile
  2962  02A8  2AA3               	goto	l1588
  2963  02A9                     __end_of_main:	
  2964                           
  2965                           	psect	text1
  2966  01C7                     __ptext1:	
  2967 ;; *************** function _WSLoop *****************
  2968 ;; Defined at:
  2969 ;;		line 123 in file "main.c"
  2970 ;; Parameters:    Size  Location     Type
  2971 ;;		None
  2972 ;; Auto vars:     Size  Location     Type
  2973 ;;		None
  2974 ;; Return value:  Size  Location     Type
  2975 ;;                  1    wreg      void 
  2976 ;; Registers used:
  2977 ;;		wreg, status,2, status,0, pclath, cstack
  2978 ;; Tracked objects:
  2979 ;;		On entry : 0/0
  2980 ;;		On exit  : 0/0
  2981 ;;		Unchanged: 0/0
  2982 ;; Data sizes:     COMMON   BANK0   BANK1   BANK2   BANK3   BANK4   BANK5   BANK6   BANK7   BANK8   BANK9  BANK10  BANK1
      +1  BANK12  BANK13  BANK14  BANK15  BANK16  BANK17  BANK18  BANK19  BANK20  BANK21  BANK22  BANK23  BANK24  BANK25
  2983 ;;      Params:         0       0       0       0       0       0       0       0       0       0       0       0       
      +0       0       0       0       0       0       0       0       0       0       0       0       0       0       0
  2984 ;;      Locals:         0       0       0       0       0       0       0       0       0       0       0       0       
      +0       0       0       0       0       0       0       0       0       0       0       0       0       0       0
  2985 ;;      Temps:          0       2       0       0       0       0       0       0       0       0       0       0       
      +0       0       0       0       0       0       0       0       0       0       0       0       0       0       0
  2986 ;;      Totals:         0       2       0       0       0       0       0       0       0       0       0       0       
      +0       0       0       0       0       0       0       0       0       0       0       0       0       0       0
  2987 ;;Total ram usage:        2 bytes
  2988 ;; Hardware stack levels used:    1
  2989 ;; Hardware stack levels required when called:    5
  2990 ;; This function calls:
  2991 ;;		_WS_Word
  2992 ;; This function is called by:
  2993 ;;		_main
  2994 ;; This function uses a non-reentrant model
  2995 ;;
  2996                           
  2997                           
  2998                           ;psect for function _WSLoop
  2999  01C7                     _WSLoop:	
  3000                           
  3001                           ;main.c: 129: WS_Word(0x05, 0x00, 0x00);
  3002                           
  3003                           ;incstack = 0
  3004                           ; Regs used in _WSLoop: [wreg+status,2+status,0+pclath+cstack]
  3005  01C7  0140               	movlb	0	; select bank0
  3006  01C8  01A2               	clrf	WS_Word@B
  3007  01C9  01A3               	clrf	WS_Word@C
  3008  01CA  3005               	movlw	5
  3009  01CB  3181  2160  3181   	fcall	_WS_Word
  3010                           
  3011                           ;main.c: 130: WS_Word(0x00, 0x05, 0x00);
  3012  01CE  3005               	movlw	5
  3013  01CF  0140               	movlb	0	; select bank0
  3014  01D0  00B2               	movwf	??_WSLoop
  3015  01D1  0832               	movf	??_WSLoop,w
  3016  01D2  00A2               	movwf	WS_Word@B
  3017  01D3  01A3               	clrf	WS_Word@C
  3018  01D4  3000               	movlw	0
  3019  01D5  3181  2160  3181   	fcall	_WS_Word
  3020                           
  3021                           ;main.c: 131: WS_Word(0x00, 0x00, 0x05);
  3022  01D8  0140               	movlb	0	; select bank0
  3023  01D9  01A2               	clrf	WS_Word@B
  3024  01DA  3005               	movlw	5
  3025  01DB  00B2               	movwf	??_WSLoop
  3026  01DC  0832               	movf	??_WSLoop,w
  3027  01DD  00A3               	movwf	WS_Word@C
  3028  01DE  3000               	movlw	0
  3029  01DF  3181  2160  3181   	fcall	_WS_Word
  3030                           
  3031                           ;main.c: 132: WS_Word(0x05, 0x05, 0x05);
  3032  01E2  3005               	movlw	5
  3033  01E3  0140               	movlb	0	; select bank0
  3034  01E4  00B2               	movwf	??_WSLoop
  3035  01E5  0832               	movf	??_WSLoop,w
  3036  01E6  00A2               	movwf	WS_Word@B
  3037  01E7  3005               	movlw	5
  3038  01E8  00B3               	movwf	??_WSLoop+1
  3039  01E9  0833               	movf	??_WSLoop+1,w
  3040  01EA  00A3               	movwf	WS_Word@C
  3041  01EB  3005               	movlw	5
  3042  01EC  3181  2160  3181   	fcall	_WS_Word
  3043                           
  3044                           ;main.c: 133: WS_Word(0x05, 0x00, 0x05);
  3045  01EF  0140               	movlb	0	; select bank0
  3046  01F0  01A2               	clrf	WS_Word@B
  3047  01F1  3005               	movlw	5
  3048  01F2  00B2               	movwf	??_WSLoop
  3049  01F3  0832               	movf	??_WSLoop,w
  3050  01F4  00A3               	movwf	WS_Word@C
  3051  01F5  3005               	movlw	5
  3052  01F6  3181  2160  3181   	fcall	_WS_Word
  3053                           
  3054                           ;main.c: 134: WS_Word(0x00, 0x05, 0x05);
  3055  01F9  3005               	movlw	5
  3056  01FA  0140               	movlb	0	; select bank0
  3057  01FB  00B2               	movwf	??_WSLoop
  3058  01FC  0832               	movf	??_WSLoop,w
  3059  01FD  00A2               	movwf	WS_Word@B
  3060  01FE  3005               	movlw	5
  3061  01FF  00B3               	movwf	??_WSLoop+1
  3062  0200  0833               	movf	??_WSLoop+1,w
  3063  0201  00A3               	movwf	WS_Word@C
  3064  0202  3000               	movlw	0
  3065  0203  3181  2160  3181   	fcall	_WS_Word
  3066                           
  3067                           ;main.c: 138: _delay((unsigned long)((60.000)*(32000000/4000.0)));
  3068  0206  3003               	movlw	3
  3069  0207  0140               	movlb	0	; select bank0
  3070  0208  00B3               	movwf	??_WSLoop+1
  3071  0209  3070               	movlw	112
  3072  020A  00B2               	movwf	??_WSLoop
  3073  020B  305C               	movlw	92
  3074  020C                     u817:	
  3075  020C  0B89               	decfsz	9,f
  3076  020D  2A0C               	goto	u817
  3077  020E  0BB2               	decfsz	??_WSLoop,f
  3078  020F  2A0C               	goto	u817
  3079  0210  0BB3               	decfsz	??_WSLoop+1,f
  3080  0211  2A0C               	goto	u817
  3081  0212  0000               	nop
  3082  0213  0008               	return
  3083  0214                     __end_of_WSLoop:	
  3084                           
  3085                           	psect	text2
  3086  0160                     __ptext2:	
  3087 ;; *************** function _WS_Word *****************
  3088 ;; Defined at:
  3089 ;;		line 64 in file "main.c"
  3090 ;; Parameters:    Size  Location     Type
  3091 ;;  A               1    wreg     unsigned char 
  3092 ;;  B               1    2[BANK0 ] unsigned char 
  3093 ;;  C               1    3[BANK0 ] unsigned char 
  3094 ;; Auto vars:     Size  Location     Type
  3095 ;;  A               1    7[BANK0 ] unsigned char 
  3096 ;;  x               2   12[BANK0 ] int 
  3097 ;;  x               2   10[BANK0 ] int 
  3098 ;;  x               2    8[BANK0 ] int 
  3099 ;;  i               2   16[BANK0 ] int 
  3100 ;;  Bx              2   14[BANK0 ] int 
  3101 ;; Return value:  Size  Location     Type
  3102 ;;                  1    wreg      void 
  3103 ;; Registers used:
  3104 ;;		wreg, status,2, status,0, pclath, cstack
  3105 ;; Tracked objects:
  3106 ;;		On entry : 0/0
  3107 ;;		On exit  : 0/0
  3108 ;;		Unchanged: 0/0
  3109 ;; Data sizes:     COMMON   BANK0   BANK1   BANK2   BANK3   BANK4   BANK5   BANK6   BANK7   BANK8   BANK9  BANK10  BANK1
      +1  BANK12  BANK13  BANK14  BANK15  BANK16  BANK17  BANK18  BANK19  BANK20  BANK21  BANK22  BANK23  BANK24  BANK25
  3110 ;;      Params:         0       2       0       0       0       0       0       0       0       0       0       0       
      +0       0       0       0       0       0       0       0       0       0       0       0       0       0       0
  3111 ;;      Locals:         0      11       0       0       0       0       0       0       0       0       0       0       
      +0       0       0       0       0       0       0       0       0       0       0       0       0       0       0
  3112 ;;      Temps:          0       3       0       0       0       0       0       0       0       0       0       0       
      +0       0       0       0       0       0       0       0       0       0       0       0       0       0       0
  3113 ;;      Totals:         0      16       0       0       0       0       0       0       0       0       0       0       
      +0       0       0       0       0       0       0       0       0       0       0       0       0       0       0
  3114 ;;Total ram usage:       16 bytes
  3115 ;; Hardware stack levels used:    1
  3116 ;; Hardware stack levels required when called:    4
  3117 ;; This function calls:
  3118 ;;		_WS_Write
  3119 ;; This function is called by:
  3120 ;;		_WSLoop
  3121 ;; This function uses a non-reentrant model
  3122 ;;
  3123                           
  3124                           
  3125                           ;psect for function _WS_Word
  3126  0160                     _WS_Word:	
  3127                           
  3128                           ;incstack = 0
  3129                           ; Regs used in _WS_Word: [wreg+status,2+status,0+pclath+cstack]
  3130                           ;WS_Word@A stored from wreg
  3131  0160  0140               	movlb	0	; select bank0
  3132  0161  00A7               	movwf	WS_Word@A
  3133                           
  3134                           ;main.c: 71: for(int i=23; i!=-1; i--)
  3135  0162  3017               	movlw	23
  3136  0163  00B0               	movwf	WS_Word@i
  3137  0164  3000               	movlw	0
  3138  0165  00B1               	movwf	WS_Word@i+1
  3139  0166                     l1554:	
  3140                           
  3141                           ;main.c: 72: {;main.c: 73: if(i>15)
  3142  0166  0831               	movf	WS_Word@i+1,w
  3143  0167  3A80               	xorlw	128
  3144  0168  00A4               	movwf	??_WS_Word
  3145  0169  3080               	movlw	128
  3146  016A  0224               	subwf	??_WS_Word,w
  3147  016B  1D03               	skipz
  3148  016C  296F               	goto	u745
  3149  016D  3010               	movlw	16
  3150  016E  0230               	subwf	WS_Word@i,w
  3151  016F                     u745:	
  3152  016F  1C03               	skipc
  3153  0170  2980               	goto	l1558
  3154                           
  3155                           ;main.c: 74: {;main.c: 75: int x = i - 16;
  3156  0171  0140               	movlb	0	; select bank0
  3157  0172  0830               	movf	WS_Word@i,w
  3158  0173  3EF0               	addlw	240
  3159  0174  00A8               	movwf	WS_Word@x
  3160  0175  30FF               	movlw	255
  3161  0176  3D31               	addwfc	WS_Word@i+1,w
  3162  0177  00A9               	movwf	WS_Word@x+1
  3163                           
  3164                           ;main.c: 76: Bx = 1 & ( C >> x );
  3165  0178  0823               	movf	WS_Word@C,w
  3166  0179  00A4               	movwf	??_WS_Word
  3167  017A  0A28               	incf	WS_Word@x,w
  3168  017B  297D               	goto	u754
  3169  017C                     u755:	
  3170  017C  36A4               	lsrf	??_WS_Word,f
  3171  017D                     u754:	
  3172  017D  0B89               	decfsz	9,f
  3173  017E  297C               	goto	u755
  3174  017F  29A8               	goto	L3
  3175  0180                     l1558:	
  3176                           ;main.c: 77: }
  3177                           
  3178                           
  3179                           ;main.c: 78: else if ( i > 7 )
  3180  0180  0140               	movlb	0	; select bank0
  3181  0181  0831               	movf	WS_Word@i+1,w
  3182  0182  3A80               	xorlw	128
  3183  0183  00A4               	movwf	??_WS_Word
  3184  0184  3080               	movlw	128
  3185  0185  0224               	subwf	??_WS_Word,w
  3186  0186  3008               	movlw	8
  3187  0187  1903               	btfsc	3,2
  3188  0188  0230               	subwf	WS_Word@i,w
  3189  0189  1C03               	skipc
  3190  018A  299A               	goto	l275
  3191                           
  3192                           ;main.c: 79: {;main.c: 80: int x = i - 8;
  3193  018B  0140               	movlb	0	; select bank0
  3194  018C  0830               	movf	WS_Word@i,w
  3195  018D  3EF8               	addlw	248
  3196  018E  00AA               	movwf	WS_Word@x_519
  3197  018F  30FF               	movlw	255
  3198  0190  3D31               	addwfc	WS_Word@i+1,w
  3199  0191  00AB               	movwf	WS_Word@x_519+1
  3200                           
  3201                           ;main.c: 81: Bx = 0b00000001 & ( A >> x );
  3202  0192  0827               	movf	WS_Word@A,w
  3203  0193  00A4               	movwf	??_WS_Word
  3204  0194  0A2A               	incf	WS_Word@x_519,w
  3205  0195  2997               	goto	u774
  3206  0196                     u775:	
  3207  0196  36A4               	lsrf	??_WS_Word,f
  3208  0197                     u774:	
  3209  0197  0B89               	decfsz	9,f
  3210  0198  2996               	goto	u775
  3211  0199  29A8               	goto	L3
  3212  019A                     l275:	
  3213                           ;main.c: 82: }
  3214                           
  3215                           
  3216                           ;main.c: 83: else if ( i >= 0 )
  3217  019A  0140               	movlb	0	; select bank0
  3218  019B  1BB1               	btfsc	WS_Word@i+1,7
  3219  019C  29B0               	goto	l1566
  3220                           
  3221                           ;main.c: 84: {;main.c: 85: int x = i;
  3222  019D  0831               	movf	WS_Word@i+1,w
  3223  019E  00AD               	movwf	WS_Word@x_520+1
  3224  019F  0830               	movf	WS_Word@i,w
  3225  01A0  00AC               	movwf	WS_Word@x_520
  3226                           
  3227                           ;main.c: 86: Bx = 0b00000001 & ( B >> x );
  3228  01A1  0822               	movf	WS_Word@B,w
  3229  01A2  00A4               	movwf	??_WS_Word
  3230  01A3  0A2C               	incf	WS_Word@x_520,w
  3231  01A4  29A6               	goto	u794
  3232  01A5                     u795:	
  3233  01A5  36A4               	lsrf	??_WS_Word,f
  3234  01A6                     u794:	
  3235  01A6  0B89               	decfsz	9,f
  3236  01A7  29A5               	goto	u795
  3237  01A8                     L3:	
  3238  01A8  0824               	movf	??_WS_Word,w
  3239  01A9  3901               	andlw	1
  3240  01AA  00A5               	movwf	??_WS_Word+1
  3241  01AB  01A6               	clrf	??_WS_Word+2
  3242  01AC  0825               	movf	??_WS_Word+1,w
  3243  01AD  00AE               	movwf	WS_Word@Bx
  3244  01AE  0826               	movf	??_WS_Word+2,w
  3245  01AF  29B3               	goto	L1
  3246  01B0                     l1566:	
  3247                           ;main.c: 87: }
  3248                           
  3249                           
  3250                           ;main.c: 88: else;main.c: 89: {;main.c: 90: Bx = 1;
  3251  01B0  3001               	movlw	1
  3252  01B1  00AE               	movwf	WS_Word@Bx
  3253  01B2  3000               	movlw	0
  3254  01B3                     L1:	
  3255  01B3  00AF               	movwf	WS_Word@Bx+1
  3256                           
  3257                           ;main.c: 91: };main.c: 92: WS_Write(Bx);
  3258  01B4  082F               	movf	WS_Word@Bx+1,w
  3259  01B5  00A1               	movwf	WS_Write@A+1
  3260  01B6  082E               	movf	WS_Word@Bx,w
  3261  01B7  00A0               	movwf	WS_Write@A
  3262  01B8  3182  2268  3181   	fcall	_WS_Write
  3263  01BB  30FF               	movlw	255
  3264  01BC  0140               	movlb	0	; select bank0
  3265  01BD  07B0               	addwf	WS_Word@i,f
  3266  01BE  30FF               	movlw	255
  3267  01BF  3DB1               	addwfc	WS_Word@i+1,f
  3268  01C0  0A30               	incf	WS_Word@i,w
  3269  01C1  1D03               	skipz
  3270  01C2  2966               	goto	l1554
  3271  01C3  0A31               	incf	WS_Word@i+1,w
  3272  01C4  1903               	btfsc	3,2
  3273  01C5  0008               	return
  3274  01C6  2966               	goto	l1554
  3275  01C7                     __end_of_WS_Word:	
  3276                           
  3277                           	psect	text3
  3278  0268                     __ptext3:	
  3279 ;; *************** function _WS_Write *****************
  3280 ;; Defined at:
  3281 ;;		line 96 in file "main.c"
  3282 ;; Parameters:    Size  Location     Type
  3283 ;;  A               2    0[BANK0 ] int 
  3284 ;; Auto vars:     Size  Location     Type
  3285 ;;		None
  3286 ;; Return value:  Size  Location     Type
  3287 ;;                  1    wreg      void 
  3288 ;; Registers used:
  3289 ;;		wreg, status,2, status,0
  3290 ;; Tracked objects:
  3291 ;;		On entry : 0/0
  3292 ;;		On exit  : 0/0
  3293 ;;		Unchanged: 0/0
  3294 ;; Data sizes:     COMMON   BANK0   BANK1   BANK2   BANK3   BANK4   BANK5   BANK6   BANK7   BANK8   BANK9  BANK10  BANK1
      +1  BANK12  BANK13  BANK14  BANK15  BANK16  BANK17  BANK18  BANK19  BANK20  BANK21  BANK22  BANK23  BANK24  BANK25
  3295 ;;      Params:         0       2       0       0       0       0       0       0       0       0       0       0       
      +0       0       0       0       0       0       0       0       0       0       0       0       0       0       0
  3296 ;;      Locals:         0       0       0       0       0       0       0       0       0       0       0       0       
      +0       0       0       0       0       0       0       0       0       0       0       0       0       0       0
  3297 ;;      Temps:          0       0       0       0       0       0       0       0       0       0       0       0       
      +0       0       0       0       0       0       0       0       0       0       0       0       0       0       0
  3298 ;;      Totals:         0       2       0       0       0       0       0       0       0       0       0       0       
      +0       0       0       0       0       0       0       0       0       0       0       0       0       0       0
  3299 ;;Total ram usage:        2 bytes
  3300 ;; Hardware stack levels used:    1
  3301 ;; Hardware stack levels required when called:    3
  3302 ;; This function calls:
  3303 ;;		Nothing
  3304 ;; This function is called by:
  3305 ;;		_WS_Word
  3306 ;; This function uses a non-reentrant model
  3307 ;;
  3308                           
  3309                           
  3310                           ;psect for function _WS_Write
  3311  0268                     _WS_Write:	
  3312                           
  3313                           ;main.c: 98: if(A)
  3314                           
  3315                           ;incstack = 0
  3316                           ; Regs used in _WS_Write: [wreg+status,2+status,0]
  3317  0268  0140               	movlb	0	; select bank0
  3318  0269  0820               	movf	WS_Write@A,w
  3319  026A  0421               	iorwf	WS_Write@A+1,w
  3320  026B  1903               	btfsc	3,2
  3321  026C  2A74               	goto	l282
  3322                           
  3323                           ;main.c: 99: {;main.c: 100: LATAbits.LATA2 = 1;
  3324  026D  1518               	bsf	24,2	;volatile
  3325                           
  3326                           ;main.c: 101: __nop();
  3327  026E  0000               	nop
  3328                           
  3329                           ;main.c: 102: __nop();
  3330  026F  0000               	nop
  3331                           
  3332                           ;main.c: 103: __nop();
  3333  0270  0000               	nop
  3334                           
  3335                           ;main.c: 105: LATAbits.LATA2 = 0;
  3336  0271  0140               	movlb	0	; select bank0
  3337  0272  1118               	bcf	24,2	;volatile
  3338                           
  3339                           ;main.c: 107: }
  3340  0273  0008               	return
  3341  0274                     l282:	
  3342                           
  3343                           ;main.c: 108: else;main.c: 109: {;main.c: 110: LATAbits.LATA2 = 1;
  3344  0274  1518               	bsf	24,2	;volatile
  3345                           
  3346                           ;main.c: 112: LATAbits.LATA2 = 0;
  3347  0275  1118               	bcf	24,2	;volatile
  3348                           
  3349                           ;main.c: 113: __nop();
  3350  0276  0000               	nop
  3351                           
  3352                           ;main.c: 114: __nop();
  3353  0277  0000               	nop
  3354                           
  3355                           ;main.c: 115: __nop();
  3356  0278  0000               	nop
  3357  0279  0008               	return
  3358  027A                     __end_of_WS_Write:	
  3359                           
  3360                           	psect	text4
  3361  028A                     __ptext4:	
  3362 ;; *************** function _SYSTEM_Initialize *****************
  3363 ;; Defined at:
  3364 ;;		line 50 in file "mcc_generated_files/mcc.c"
  3365 ;; Parameters:    Size  Location     Type
  3366 ;;		None
  3367 ;; Auto vars:     Size  Location     Type
  3368 ;;		None
  3369 ;; Return value:  Size  Location     Type
  3370 ;;                  1    wreg      void 
  3371 ;; Registers used:
  3372 ;;		wreg, status,2, status,0, pclath, cstack
  3373 ;; Tracked objects:
  3374 ;;		On entry : 0/0
  3375 ;;		On exit  : 0/0
  3376 ;;		Unchanged: 0/0
  3377 ;; Data sizes:     COMMON   BANK0   BANK1   BANK2   BANK3   BANK4   BANK5   BANK6   BANK7   BANK8   BANK9  BANK10  BANK1
      +1  BANK12  BANK13  BANK14  BANK15  BANK16  BANK17  BANK18  BANK19  BANK20  BANK21  BANK22  BANK23  BANK24  BANK25
  3378 ;;      Params:         0       0       0       0       0       0       0       0       0       0       0       0       
      +0       0       0       0       0       0       0       0       0       0       0       0       0       0       0
  3379 ;;      Locals:         0       0       0       0       0       0       0       0       0       0       0       0       
      +0       0       0       0       0       0       0       0       0       0       0       0       0       0       0
  3380 ;;      Temps:          0       0       0       0       0       0       0       0       0       0       0       0       
      +0       0       0       0       0       0       0       0       0       0       0       0       0       0       0
  3381 ;;      Totals:         0       0       0       0       0       0       0       0       0       0       0       0       
      +0       0       0       0       0       0       0       0       0       0       0       0       0       0       0
  3382 ;;Total ram usage:        0 bytes
  3383 ;; Hardware stack levels used:    1
  3384 ;; Hardware stack levels required when called:    4
  3385 ;; This function calls:
  3386 ;;		_I2C1_Initialize
  3387 ;;		_OSCILLATOR_Initialize
  3388 ;;		_PIN_MANAGER_Initialize
  3389 ;;		_PMD_Initialize
  3390 ;; This function is called by:
  3391 ;;		_main
  3392 ;; This function uses a non-reentrant model
  3393 ;;
  3394                           
  3395                           
  3396                           ;psect for function _SYSTEM_Initialize
  3397  028A                     _SYSTEM_Initialize:	
  3398                           
  3399                           ;mcc.c: 52: PMD_Initialize();
  3400                           
  3401                           ;incstack = 0
  3402                           ; Regs used in _SYSTEM_Initialize: [wreg+status,2+status,0+pclath+cstack]
  3403  028A  3182  2296  3182   	fcall	_PMD_Initialize
  3404                           
  3405                           ;mcc.c: 53: PIN_MANAGER_Initialize();
  3406  028D  3182  2214  3182   	fcall	_PIN_MANAGER_Initialize
  3407                           
  3408                           ;mcc.c: 54: OSCILLATOR_Initialize();
  3409  0290  3182  22A9  3182   	fcall	_OSCILLATOR_Initialize
  3410                           
  3411                           ;mcc.c: 55: I2C1_Initialize();
  3412  0293  3182  2238         	fcall	_I2C1_Initialize
  3413  0295  0008               	return
  3414  0296                     __end_of_SYSTEM_Initialize:	
  3415                           
  3416                           	psect	text5
  3417  0296                     __ptext5:	
  3418 ;; *************** function _PMD_Initialize *****************
  3419 ;; Defined at:
  3420 ;;		line 72 in file "mcc_generated_files/mcc.c"
  3421 ;; Parameters:    Size  Location     Type
  3422 ;;		None
  3423 ;; Auto vars:     Size  Location     Type
  3424 ;;		None
  3425 ;; Return value:  Size  Location     Type
  3426 ;;                  1    wreg      void 
  3427 ;; Registers used:
  3428 ;;		status,2
  3429 ;; Tracked objects:
  3430 ;;		On entry : 0/0
  3431 ;;		On exit  : 0/0
  3432 ;;		Unchanged: 0/0
  3433 ;; Data sizes:     COMMON   BANK0   BANK1   BANK2   BANK3   BANK4   BANK5   BANK6   BANK7   BANK8   BANK9  BANK10  BANK1
      +1  BANK12  BANK13  BANK14  BANK15  BANK16  BANK17  BANK18  BANK19  BANK20  BANK21  BANK22  BANK23  BANK24  BANK25
  3434 ;;      Params:         0       0       0       0       0       0       0       0       0       0       0       0       
      +0       0       0       0       0       0       0       0       0       0       0       0       0       0       0
  3435 ;;      Locals:         0       0       0       0       0       0       0       0       0       0       0       0       
      +0       0       0       0       0       0       0       0       0       0       0       0       0       0       0
  3436 ;;      Temps:          0       0       0       0       0       0       0       0       0       0       0       0       
      +0       0       0       0       0       0       0       0       0       0       0       0       0       0       0
  3437 ;;      Totals:         0       0       0       0       0       0       0       0       0       0       0       0       
      +0       0       0       0       0       0       0       0       0       0       0       0       0       0       0
  3438 ;;Total ram usage:        0 bytes
  3439 ;; Hardware stack levels used:    1
  3440 ;; Hardware stack levels required when called:    3
  3441 ;; This function calls:
  3442 ;;		Nothing
  3443 ;; This function is called by:
  3444 ;;		_SYSTEM_Initialize
  3445 ;; This function uses a non-reentrant model
  3446 ;;
  3447                           
  3448                           
  3449                           ;psect for function _PMD_Initialize
  3450  0296                     _PMD_Initialize:	
  3451                           
  3452                           ;mcc.c: 75: PMD0 = 0x00;
  3453                           
  3454                           ;incstack = 0
  3455                           ; Regs used in _PMD_Initialize: [status,2]
  3456  0296  014F               	movlb	15	; select bank15
  3457  0297  0196               	clrf	22	;volatile
  3458                           
  3459                           ;mcc.c: 77: PMD1 = 0x00;
  3460  0298  0197               	clrf	23	;volatile
  3461                           
  3462                           ;mcc.c: 79: PMD2 = 0x00;
  3463  0299  0198               	clrf	24	;volatile
  3464                           
  3465                           ;mcc.c: 81: PMD3 = 0x00;
  3466  029A  0199               	clrf	25	;volatile
  3467                           
  3468                           ;mcc.c: 83: PMD4 = 0x00;
  3469  029B  019A               	clrf	26	;volatile
  3470                           
  3471                           ;mcc.c: 85: PMD5 = 0x00;
  3472  029C  019B               	clrf	27	;volatile
  3473                           
  3474                           ;mcc.c: 87: PMD6 = 0x00;
  3475  029D  019C               	clrf	28	;volatile
  3476                           
  3477                           ;mcc.c: 89: PMD7 = 0x00;
  3478  029E  019D               	clrf	29	;volatile
  3479  029F  0008               	return
  3480  02A0                     __end_of_PMD_Initialize:	
  3481                           
  3482                           	psect	text6
  3483  0214                     __ptext6:	
  3484 ;; *************** function _PIN_MANAGER_Initialize *****************
  3485 ;; Defined at:
  3486 ;;		line 55 in file "mcc_generated_files/pin_manager.c"
  3487 ;; Parameters:    Size  Location     Type
  3488 ;;		None
  3489 ;; Auto vars:     Size  Location     Type
  3490 ;;		None
  3491 ;; Return value:  Size  Location     Type
  3492 ;;                  1    wreg      void 
  3493 ;; Registers used:
  3494 ;;		wreg, status,2
  3495 ;; Tracked objects:
  3496 ;;		On entry : 0/0
  3497 ;;		On exit  : 0/0
  3498 ;;		Unchanged: 0/0
  3499 ;; Data sizes:     COMMON   BANK0   BANK1   BANK2   BANK3   BANK4   BANK5   BANK6   BANK7   BANK8   BANK9  BANK10  BANK1
      +1  BANK12  BANK13  BANK14  BANK15  BANK16  BANK17  BANK18  BANK19  BANK20  BANK21  BANK22  BANK23  BANK24  BANK25
  3500 ;;      Params:         0       0       0       0       0       0       0       0       0       0       0       0       
      +0       0       0       0       0       0       0       0       0       0       0       0       0       0       0
  3501 ;;      Locals:         0       0       0       0       0       0       0       0       0       0       0       0       
      +0       0       0       0       0       0       0       0       0       0       0       0       0       0       0
  3502 ;;      Temps:          0       0       0       0       0       0       0       0       0       0       0       0       
      +0       0       0       0       0       0       0       0       0       0       0       0       0       0       0
  3503 ;;      Totals:         0       0       0       0       0       0       0       0       0       0       0       0       
      +0       0       0       0       0       0       0       0       0       0       0       0       0       0       0
  3504 ;;Total ram usage:        0 bytes
  3505 ;; Hardware stack levels used:    1
  3506 ;; Hardware stack levels required when called:    3
  3507 ;; This function calls:
  3508 ;;		Nothing
  3509 ;; This function is called by:
  3510 ;;		_SYSTEM_Initialize
  3511 ;; This function uses a non-reentrant model
  3512 ;;
  3513                           
  3514                           
  3515                           ;psect for function _PIN_MANAGER_Initialize
  3516  0214                     _PIN_MANAGER_Initialize:	
  3517                           
  3518                           ;pin_manager.c: 60: LATA = 0x00;
  3519                           
  3520                           ;incstack = 0
  3521                           ; Regs used in _PIN_MANAGER_Initialize: [wreg+status,2]
  3522  0214  0140               	movlb	0	; select bank0
  3523  0215  0198               	clrf	24	;volatile
  3524                           
  3525                           ;pin_manager.c: 61: LATC = 0x00;
  3526  0216  019A               	clrf	26	;volatile
  3527                           
  3528                           ;pin_manager.c: 66: TRISA = 0x3B;
  3529  0217  303B               	movlw	59
  3530  0218  0092               	movwf	18	;volatile
  3531                           
  3532                           ;pin_manager.c: 67: TRISC = 0x3F;
  3533  0219  303F               	movlw	63
  3534  021A  0094               	movwf	20	;volatile
  3535                           
  3536                           ;pin_manager.c: 72: ANSELC = 0x3C;
  3537  021B  303C               	movlw	60
  3538  021C  017E               	movlb	62	; select bank62
  3539  021D  00CE               	movwf	78	;volatile
  3540                           
  3541                           ;pin_manager.c: 73: ANSELA = 0x37;
  3542  021E  3037               	movlw	55
  3543  021F  00B8               	movwf	56	;volatile
  3544                           
  3545                           ;pin_manager.c: 78: WPUA = 0x00;
  3546  0220  01B9               	clrf	57	;volatile
  3547                           
  3548                           ;pin_manager.c: 79: WPUC = 0x00;
  3549  0221  01CF               	clrf	79	;volatile
  3550                           
  3551                           ;pin_manager.c: 84: ODCONA = 0x00;
  3552  0222  01BA               	clrf	58	;volatile
  3553                           
  3554                           ;pin_manager.c: 85: ODCONC = 0x00;
  3555  0223  01D0               	clrf	80	;volatile
  3556                           
  3557                           ;pin_manager.c: 90: SLRCONA = 0x37;
  3558  0224  3037               	movlw	55
  3559  0225  00BB               	movwf	59	;volatile
  3560                           
  3561                           ;pin_manager.c: 91: SLRCONC = 0x3F;
  3562  0226  303F               	movlw	63
  3563  0227  00D1               	movwf	81	;volatile
  3564                           
  3565                           ;pin_manager.c: 96: INLVLA = 0x3F;
  3566  0228  303F               	movlw	63
  3567  0229  00BC               	movwf	60	;volatile
  3568                           
  3569                           ;pin_manager.c: 97: INLVLC = 0x3F;
  3570  022A  303F               	movlw	63
  3571  022B  00D2               	movwf	82	;volatile
  3572                           
  3573                           ;pin_manager.c: 106: RC0PPS = 0x13;
  3574  022C  3013               	movlw	19
  3575  022D  00A0               	movwf	32	;volatile
  3576                           
  3577                           ;pin_manager.c: 107: SSP1CLKPPS = 0x10;
  3578  022E  3010               	movlw	16
  3579  022F  017D               	movlb	61	; select bank61
  3580  0230  00C5               	movwf	69	;volatile
  3581                           
  3582                           ;pin_manager.c: 108: RC1PPS = 0x14;
  3583  0231  3014               	movlw	20
  3584  0232  017E               	movlb	62	; select bank62
  3585  0233  00A1               	movwf	33	;volatile
  3586                           
  3587                           ;pin_manager.c: 109: SSP1DATPPS = 0x11;
  3588  0234  3011               	movlw	17
  3589  0235  017D               	movlb	61	; select bank61
  3590  0236  00C6               	movwf	70	;volatile
  3591  0237  0008               	return
  3592  0238                     __end_of_PIN_MANAGER_Initialize:	
  3593                           
  3594                           	psect	text7
  3595  02A9                     __ptext7:	
  3596 ;; *************** function _OSCILLATOR_Initialize *****************
  3597 ;; Defined at:
  3598 ;;		line 58 in file "mcc_generated_files/mcc.c"
  3599 ;; Parameters:    Size  Location     Type
  3600 ;;		None
  3601 ;; Auto vars:     Size  Location     Type
  3602 ;;		None
  3603 ;; Return value:  Size  Location     Type
  3604 ;;                  1    wreg      void 
  3605 ;; Registers used:
  3606 ;;		wreg, status,2
  3607 ;; Tracked objects:
  3608 ;;		On entry : 0/0
  3609 ;;		On exit  : 0/0
  3610 ;;		Unchanged: 0/0
  3611 ;; Data sizes:     COMMON   BANK0   BANK1   BANK2   BANK3   BANK4   BANK5   BANK6   BANK7   BANK8   BANK9  BANK10  BANK1
      +1  BANK12  BANK13  BANK14  BANK15  BANK16  BANK17  BANK18  BANK19  BANK20  BANK21  BANK22  BANK23  BANK24  BANK25
  3612 ;;      Params:         0       0       0       0       0       0       0       0       0       0       0       0       
      +0       0       0       0       0       0       0       0       0       0       0       0       0       0       0
  3613 ;;      Locals:         0       0       0       0       0       0       0       0       0       0       0       0       
      +0       0       0       0       0       0       0       0       0       0       0       0       0       0       0
  3614 ;;      Temps:          0       0       0       0       0       0       0       0       0       0       0       0       
      +0       0       0       0       0       0       0       0       0       0       0       0       0       0       0
  3615 ;;      Totals:         0       0       0       0       0       0       0       0       0       0       0       0       
      +0       0       0       0       0       0       0       0       0       0       0       0       0       0       0
  3616 ;;Total ram usage:        0 bytes
  3617 ;; Hardware stack levels used:    1
  3618 ;; Hardware stack levels required when called:    3
  3619 ;; This function calls:
  3620 ;;		Nothing
  3621 ;; This function is called by:
  3622 ;;		_SYSTEM_Initialize
  3623 ;; This function uses a non-reentrant model
  3624 ;;
  3625                           
  3626                           
  3627                           ;psect for function _OSCILLATOR_Initialize
  3628  02A9                     _OSCILLATOR_Initialize:	
  3629                           
  3630                           ;mcc.c: 61: OSCCON1 = 0x60;
  3631                           
  3632                           ;incstack = 0
  3633                           ; Regs used in _OSCILLATOR_Initialize: [wreg+status,2]
  3634  02A9  3060               	movlw	96
  3635  02AA  0151               	movlb	17	; select bank17
  3636  02AB  008D               	movwf	13	;volatile
  3637                           
  3638                           ;mcc.c: 63: OSCCON3 = 0x00;
  3639  02AC  018F               	clrf	15	;volatile
  3640                           
  3641                           ;mcc.c: 65: OSCEN = 0x00;
  3642  02AD  0191               	clrf	17	;volatile
  3643                           
  3644                           ;mcc.c: 67: OSCFRQ = 0x06;
  3645  02AE  3006               	movlw	6
  3646  02AF  0093               	movwf	19	;volatile
  3647                           
  3648                           ;mcc.c: 69: OSCTUNE = 0x00;
  3649  02B0  0192               	clrf	18	;volatile
  3650  02B1  0008               	return
  3651  02B2                     __end_of_OSCILLATOR_Initialize:	
  3652                           
  3653                           	psect	text8
  3654  0238                     __ptext8:	
  3655 ;; *************** function _I2C1_Initialize *****************
  3656 ;; Defined at:
  3657 ;;		line 198 in file "mcc_generated_files/i2c1.c"
  3658 ;; Parameters:    Size  Location     Type
  3659 ;;		None
  3660 ;; Auto vars:     Size  Location     Type
  3661 ;;		None
  3662 ;; Return value:  Size  Location     Type
  3663 ;;                  1    wreg      void 
  3664 ;; Registers used:
  3665 ;;		wreg, status,2
  3666 ;; Tracked objects:
  3667 ;;		On entry : 0/0
  3668 ;;		On exit  : 0/0
  3669 ;;		Unchanged: 0/0
  3670 ;; Data sizes:     COMMON   BANK0   BANK1   BANK2   BANK3   BANK4   BANK5   BANK6   BANK7   BANK8   BANK9  BANK10  BANK1
      +1  BANK12  BANK13  BANK14  BANK15  BANK16  BANK17  BANK18  BANK19  BANK20  BANK21  BANK22  BANK23  BANK24  BANK25
  3671 ;;      Params:         0       0       0       0       0       0       0       0       0       0       0       0       
      +0       0       0       0       0       0       0       0       0       0       0       0       0       0       0
  3672 ;;      Locals:         0       0       0       0       0       0       0       0       0       0       0       0       
      +0       0       0       0       0       0       0       0       0       0       0       0       0       0       0
  3673 ;;      Temps:          0       1       0       0       0       0       0       0       0       0       0       0       
      +0       0       0       0       0       0       0       0       0       0       0       0       0       0       0
  3674 ;;      Totals:         0       1       0       0       0       0       0       0       0       0       0       0       
      +0       0       0       0       0       0       0       0       0       0       0       0       0       0       0
  3675 ;;Total ram usage:        1 bytes
  3676 ;; Hardware stack levels used:    1
  3677 ;; Hardware stack levels required when called:    3
  3678 ;; This function calls:
  3679 ;;		Nothing
  3680 ;; This function is called by:
  3681 ;;		_SYSTEM_Initialize
  3682 ;; This function uses a non-reentrant model
  3683 ;;
  3684                           
  3685                           
  3686                           ;psect for function _I2C1_Initialize
  3687  0238                     _I2C1_Initialize:	
  3688                           
  3689                           ;i2c1.c: 200: i2c1_object.pTrHead = i2c1_tr_queue;
  3690                           
  3691                           ;incstack = 0
  3692                           ; Regs used in _I2C1_Initialize: [wreg+status,2]
  3693  0238  3044               	movlw	(low (_i2c1_tr_queue| 0))& (0+255)
  3694  0239  0140               	movlb	0	; select bank0
  3695  023A  00A0               	movwf	??_I2C1_Initialize
  3696  023B  0820               	movf	??_I2C1_Initialize,w
  3697  023C  00B5               	movwf	low ((_i2c1_object| 0+1))
  3698                           
  3699                           ;i2c1.c: 201: i2c1_object.pTrTail = i2c1_tr_queue;
  3700  023D  3044               	movlw	(low (_i2c1_tr_queue| 0))& (0+255)
  3701  023E  00A0               	movwf	??_I2C1_Initialize
  3702  023F  0820               	movf	??_I2C1_Initialize,w
  3703  0240  00B4               	movwf	_i2c1_object
  3704                           
  3705                           ;i2c1.c: 202: i2c1_object.trStatus.s.empty = 1;
  3706  0241  14B6               	bsf	_i2c1_object+2,1
  3707                           
  3708                           ;i2c1.c: 203: i2c1_object.trStatus.s.full = 0;
  3709  0242  1036               	bcf	_i2c1_object+2,0
  3710                           
  3711                           ;i2c1.c: 205: i2c1_object.i2cErrors = 0;
  3712  0243  01B8               	clrf	_i2c1_object+4
  3713                           
  3714                           ;i2c1.c: 208: SSP1STAT = 0x00;
  3715  0244  0143               	movlb	3	; select bank3
  3716  0245  018F               	clrf	15	;volatile
  3717                           
  3718                           ;i2c1.c: 210: SSP1CON1 = 0x28;
  3719  0246  3028               	movlw	40
  3720  0247  0090               	movwf	16	;volatile
  3721                           
  3722                           ;i2c1.c: 212: SSP1CON3 = 0x00;
  3723  0248  0192               	clrf	18	;volatile
  3724                           
  3725                           ;i2c1.c: 214: SSP1ADD = 0x03;
  3726  0249  3003               	movlw	3
  3727  024A  008D               	movwf	13	;volatile
  3728                           
  3729                           ;i2c1.c: 217: PIR3bits.SSP1IF = 0;
  3730  024B  014E               	movlb	14	; select bank14
  3731  024C  100F               	bcf	15,0	;volatile
  3732                           
  3733                           ;i2c1.c: 218: PIR3bits.BCL1IF = 0;
  3734  024D  108F               	bcf	15,1	;volatile
  3735                           
  3736                           ;i2c1.c: 221: PIE3bits.SSP1IE = 1;
  3737  024E  1419               	bsf	25,0	;volatile
  3738                           
  3739                           ;i2c1.c: 222: PIE3bits.BCL1IE = 1;
  3740  024F  1499               	bsf	25,1	;volatile
  3741  0250  0008               	return
  3742  0251                     __end_of_I2C1_Initialize:	
  3743                           
  3744                           	psect	intentry
  3745  0004                     __pintentry:	
  3746 ;; *************** function _INTERRUPT_InterruptManager *****************
  3747 ;; Defined at:
  3748 ;;		line 52 in file "mcc_generated_files/interrupt_manager.c"
  3749 ;; Parameters:    Size  Location     Type
  3750 ;;		None
  3751 ;; Auto vars:     Size  Location     Type
  3752 ;;		None
  3753 ;; Return value:  Size  Location     Type
  3754 ;;                  1    wreg      void 
  3755 ;; Registers used:
  3756 ;;		wreg, fsr0l, fsr0h, fsr1l, fsr1h, status,2, status,0, pclath, cstack
  3757 ;; Tracked objects:
  3758 ;;		On entry : 0/0
  3759 ;;		On exit  : 0/0
  3760 ;;		Unchanged: 0/0
  3761 ;; Data sizes:     COMMON   BANK0   BANK1   BANK2   BANK3   BANK4   BANK5   BANK6   BANK7   BANK8   BANK9  BANK10  BANK1
      +1  BANK12  BANK13  BANK14  BANK15  BANK16  BANK17  BANK18  BANK19  BANK20  BANK21  BANK22  BANK23  BANK24  BANK25
  3762 ;;      Params:         0       0       0       0       0       0       0       0       0       0       0       0       
      +0       0       0       0       0       0       0       0       0       0       0       0       0       0       0
  3763 ;;      Locals:         0       0       0       0       0       0       0       0       0       0       0       0       
      +0       0       0       0       0       0       0       0       0       0       0       0       0       0       0
  3764 ;;      Temps:          0       0       0       0       0       0       0       0       0       0       0       0       
      +0       0       0       0       0       0       0       0       0       0       0       0       0       0       0
  3765 ;;      Totals:         0       0       0       0       0       0       0       0       0       0       0       0       
      +0       0       0       0       0       0       0       0       0       0       0       0       0       0       0
  3766 ;;Total ram usage:        0 bytes
  3767 ;; Hardware stack levels used:    1
  3768 ;; Hardware stack levels required when called:    2
  3769 ;; This function calls:
  3770 ;;		_I2C1_BusCollisionISR
  3771 ;;		_I2C1_ISR
  3772 ;; This function is called by:
  3773 ;;		Interrupt level 1
  3774 ;; This function uses a non-reentrant model
  3775 ;;
  3776                           
  3777  0004                     _INTERRUPT_InterruptManager:	
  3778                           
  3779                           ;incstack = 0
  3780  0004  147E               	bsf	126,0	;set compiler interrupt flag (level 1)
  3781                           
  3782                           ; Regs used in _INTERRUPT_InterruptManager: [wreg-fsr1h+status,2+status,0+pclath+cstack]
  3783  0005  3180               	pagesel	$
  3784                           
  3785                           ;interrupt_manager.c: 55: if(INTCONbits.PEIE == 1)
  3786  0006  1F0B               	btfss	11,6	;volatile
  3787  0007  2815               	goto	i1l21
  3788                           
  3789                           ;interrupt_manager.c: 56: {;interrupt_manager.c: 57: if(PIE3bits.BCL1IE == 1 && PIR3bits
      +                          .BCL1IF == 1)
  3790  0008  014E               	movlb	14	; select bank14
  3791  0009  1899               	btfsc	25,1	;volatile
  3792  000A  1C8F               	btfss	15,1	;volatile
  3793  000B  2810               	goto	i1l16
  3794                           
  3795                           ;interrupt_manager.c: 58: {;interrupt_manager.c: 59: I2C1_BusCollisionISR();
  3796  000C  3182  22B8  3180   	fcall	_I2C1_BusCollisionISR
  3797                           
  3798                           ;interrupt_manager.c: 60: }
  3799  000F  2815               	goto	i1l21
  3800  0010                     i1l16:	
  3801                           
  3802                           ;interrupt_manager.c: 61: else if(PIE3bits.SSP1IE == 1 && PIR3bits.SSP1IF == 1)
  3803  0010  1819               	btfsc	25,0	;volatile
  3804  0011  1C0F               	btfss	15,0	;volatile
  3805  0012  2815               	goto	i1l21
  3806                           
  3807                           ;interrupt_manager.c: 62: {;interrupt_manager.c: 63: I2C1_ISR();
  3808  0013  3180  202A         	fcall	_I2C1_ISR
  3809  0015                     i1l21:	
  3810                           ;interrupt_manager.c: 68: };interrupt_manager.c: 69: }
  3811                           
  3812                           ;interrupt_manager.c: 64: }
  3813                           
  3814  0015  107E               	bcf	126,0	;clear compiler interrupt flag (level 1)
  3815  0016  0009               	retfie
  3816  0017                     __end_of_INTERRUPT_InterruptManager:	
  3817                           
  3818                           	psect	text10
  3819  002A                     __ptext10:	
  3820 ;; *************** function _I2C1_ISR *****************
  3821 ;; Defined at:
  3822 ;;		line 235 in file "mcc_generated_files/i2c1.c"
  3823 ;; Parameters:    Size  Location     Type
  3824 ;;		None
  3825 ;; Auto vars:     Size  Location     Type
  3826 ;;		None
  3827 ;; Return value:  Size  Location     Type
  3828 ;;                  1    wreg      void 
  3829 ;; Registers used:
  3830 ;;		wreg, fsr0l, fsr0h, fsr1l, fsr1h, status,2, status,0, pclath, cstack
  3831 ;; Tracked objects:
  3832 ;;		On entry : 0/0
  3833 ;;		On exit  : 0/0
  3834 ;;		Unchanged: 0/0
  3835 ;; Data sizes:     COMMON   BANK0   BANK1   BANK2   BANK3   BANK4   BANK5   BANK6   BANK7   BANK8   BANK9  BANK10  BANK1
      +1  BANK12  BANK13  BANK14  BANK15  BANK16  BANK17  BANK18  BANK19  BANK20  BANK21  BANK22  BANK23  BANK24  BANK25
  3836 ;;      Params:         0       0       0       0       0       0       0       0       0       0       0       0       
      +0       0       0       0       0       0       0       0       0       0       0       0       0       0       0
  3837 ;;      Locals:         0       0       0       0       0       0       0       0       0       0       0       0       
      +0       0       0       0       0       0       0       0       0       0       0       0       0       0       0
  3838 ;;      Temps:          4       0       0       0       0       0       0       0       0       0       0       0       
      +0       0       0       0       0       0       0       0       0       0       0       0       0       0       0
  3839 ;;      Totals:         4       0       0       0       0       0       0       0       0       0       0       0       
      +0       0       0       0       0       0       0       0       0       0       0       0       0       0       0
  3840 ;;Total ram usage:        4 bytes
  3841 ;; Hardware stack levels used:    1
  3842 ;; Hardware stack levels required when called:    1
  3843 ;; This function calls:
  3844 ;;		_I2C1_FunctionComplete
  3845 ;;		_I2C1_Stop
  3846 ;; This function is called by:
  3847 ;;		_INTERRUPT_InterruptManager
  3848 ;; This function uses a non-reentrant model
  3849 ;;
  3850                           
  3851                           
  3852                           ;psect for function _I2C1_ISR
  3853  002A                     _I2C1_ISR:	
  3854                           
  3855                           ;i2c1.c: 238: static uint8_t *pi2c_buf_ptr;;i2c1.c: 239: static uint16_t i2c_address = 0
      +                          ;;i2c1.c: 240: static uint8_t i2c_bytes_left = 0;;i2c1.c: 241: static uint8_t i2c_10bit_
      +                          address_restart = 0;;i2c1.c: 243: PIR3bits.SSP1IF = 0;
  3856                           
  3857                           ;incstack = 0
  3858                           ; Regs used in _I2C1_ISR: [wreg-fsr1h+status,2+status,0+pclath+cstack]
  3859  002A  014E               	movlb	14	; select bank14
  3860  002B  100F               	bcf	15,0	;volatile
  3861                           
  3862                           ;i2c1.c: 247: if(SSP1CON1bits.WCOL)
  3863  002C  0143               	movlb	3	; select bank3
  3864  002D  1F90               	btfss	16,7	;volatile
  3865  002E  293C               	goto	i1l1412
  3866                           
  3867                           ;i2c1.c: 248: {;i2c1.c: 250: SSP1CON1bits.WCOL = 0;
  3868  002F  1390               	bcf	16,7	;volatile
  3869                           
  3870                           ;i2c1.c: 251: i2c1_state = S_MASTER_IDLE;
  3871  0030  01F3               	clrf	_i2c1_state
  3872                           
  3873                           ;i2c1.c: 252: *(p_i2c1_current->pTrFlag) = I2C1_MESSAGE_FAIL;
  3874  0031  0870               	movf	_p_i2c1_current,w
  3875  0032  3E02               	addlw	2
  3876  0033  0086               	movwf	6
  3877  0034  0187               	clrf	7
  3878  0035  0801               	movf	1,w
  3879  0036  0086               	movwf	6
  3880  0037  0187               	clrf	7
  3881  0038  0181               	clrf	1
  3882  0039  0A81               	incf	1,f
  3883                           
  3884                           ;i2c1.c: 255: p_i2c1_current = (0);
  3885  003A  01F0               	clrf	_p_i2c1_current
  3886  003B  0008               	return
  3887  003C                     i1l166:	
  3888                           ;i2c1.c: 262: {;i2c1.c: 263: case S_MASTER_IDLE:
  3889                           
  3890                           
  3891                           ;i2c1.c: 265: if(i2c1_object.trStatus.s.empty != 1)
  3892  003C  0140               	movlb	0	; select bank0
  3893  003D  18B6               	btfsc	_i2c1_object+2,1
  3894  003E  0008               	return
  3895                           
  3896                           ;i2c1.c: 266: {;i2c1.c: 268: p_i2c1_current = i2c1_object.pTrHead;
  3897  003F  0835               	movf	low ((_i2c1_object| 0+1)),w
  3898  0040  00F8               	movwf	??_I2C1_ISR
  3899  0041  0878               	movf	??_I2C1_ISR,w
  3900  0042  00F0               	movwf	_p_i2c1_current
  3901                           
  3902                           ;i2c1.c: 269: i2c1_trb_count = i2c1_object.pTrHead->count;
  3903  0043  0835               	movf	low ((_i2c1_object| 0+1)),w
  3904  0044  0086               	movwf	6
  3905  0045  0187               	clrf	7
  3906  0046  0801               	movf	1,w
  3907  0047  00F8               	movwf	??_I2C1_ISR
  3908  0048  0878               	movf	??_I2C1_ISR,w
  3909  0049  00F2               	movwf	_i2c1_trb_count
  3910                           
  3911                           ;i2c1.c: 270: p_i2c1_trb_current = i2c1_object.pTrHead->ptrb_list;
  3912  004A  0835               	movf	low ((_i2c1_object| 0+1)),w
  3913  004B  0086               	movwf	6
  3914  004C  0187               	clrf	7
  3915  004D  3F41               	moviw [1]fsr1
  3916  004E  00F1               	movwf	_p_i2c1_trb_current
  3917                           
  3918                           ;i2c1.c: 272: i2c1_object.pTrHead++;
  3919  004F  3003               	movlw	3
  3920  0050  00F8               	movwf	??_I2C1_ISR
  3921  0051  0878               	movf	??_I2C1_ISR,w
  3922  0052  07B5               	addwf	low ((_i2c1_object| 0+1)),f
  3923                           
  3924                           ;i2c1.c: 275: if(i2c1_object.pTrHead == (i2c1_tr_queue + 1))
  3925  0053  0835               	movf	low ((_i2c1_object| 0+1)),w
  3926  0054  3A47               	xorlw	(low ((_i2c1_tr_queue| 0+3)))& (0+255)
  3927  0055  1D03               	skipz
  3928  0056  285B               	goto	i1l1300
  3929                           
  3930                           ;i2c1.c: 276: {;i2c1.c: 278: i2c1_object.pTrHead = i2c1_tr_queue;
  3931  0057  3044               	movlw	(low (_i2c1_tr_queue| 0))& (0+255)
  3932  0058  00F8               	movwf	??_I2C1_ISR
  3933  0059  0878               	movf	??_I2C1_ISR,w
  3934  005A  00B5               	movwf	low ((_i2c1_object| 0+1))
  3935  005B                     i1l1300:	
  3936                           
  3937                           ;i2c1.c: 279: };i2c1.c: 283: i2c1_object.trStatus.s.full = 0;
  3938  005B  1036               	bcf	_i2c1_object+2,0
  3939                           
  3940                           ;i2c1.c: 286: if(i2c1_object.pTrHead == i2c1_object.pTrTail)
  3941  005C  0835               	movf	low ((_i2c1_object| 0+1)),w
  3942  005D  0634               	xorwf	_i2c1_object,w
  3943  005E  1903               	btfsc	3,2
  3944                           
  3945                           ;i2c1.c: 287: {;i2c1.c: 289: i2c1_object.trStatus.s.empty = 1;
  3946  005F  14B6               	bsf	_i2c1_object+2,1
  3947                           
  3948                           ;i2c1.c: 290: };i2c1.c: 293: SSP1CON2bits.SEN = 1;
  3949  0060  0143               	movlb	3	; select bank3
  3950  0061  1411               	bsf	17,0	;volatile
  3951  0062                     i1l1304:	
  3952                           
  3953                           ;i2c1.c: 296: i2c1_state = S_MASTER_SEND_ADDR;
  3954  0062  3002               	movlw	2
  3955  0063  00F8               	movwf	??_I2C1_ISR
  3956  0064  0878               	movf	??_I2C1_ISR,w
  3957  0065  00F3               	movwf	_i2c1_state
  3958  0066  0008               	return
  3959  0067                     i1l171:	
  3960                           ;i2c1.c: 301: case S_MASTER_RESTART:
  3961                           
  3962  0067  28EA               	goto	L4
  3963  0068                     i1l172:	
  3964                           ;i2c1.c: 313: case S_MASTER_SEND_ADDR_10BIT_LSB:
  3965                           
  3966                           ;i2c1.c: 306: SSP1CON2bits.RSEN = 1;
  3967                           
  3968                           
  3969                           ;i2c1.c: 315: if(SSP1CON2bits.ACKSTAT)
  3970  0068  1F11               	btfss	17,6	;volatile
  3971  0069  2873               	goto	i1l1312
  3972                           
  3973                           ;i2c1.c: 316: {;i2c1.c: 317: i2c1_object.i2cErrors++;
  3974  006A  3001               	movlw	1
  3975  006B  00F8               	movwf	??_I2C1_ISR
  3976  006C  0878               	movf	??_I2C1_ISR,w
  3977  006D  0140               	movlb	0	; select bank0
  3978  006E  07B8               	addwf	_i2c1_object+4,f
  3979                           
  3980                           ;i2c1.c: 318: I2C1_Stop(I2C1_MESSAGE_ADDRESS_NO_ACK);
  3981  006F  3004               	movlw	4
  3982  0070  3182  2251         	fcall	_I2C1_Stop
  3983                           
  3984                           ;i2c1.c: 319: }
  3985  0072  0008               	return
  3986  0073                     i1l1312:	
  3987                           
  3988                           ;i2c1.c: 320: else;i2c1.c: 321: {;i2c1.c: 323: SSP1BUF = (i2c_address >> 1) & 0x00FF;
  3989  0073  0875               	movf	I2C1_ISR@i2c_address+1,w
  3990  0074  00F9               	movwf	??_I2C1_ISR+1
  3991  0075  0874               	movf	I2C1_ISR@i2c_address,w
  3992  0076  00F8               	movwf	??_I2C1_ISR
  3993  0077  36F9               	lsrf	??_I2C1_ISR+1,f
  3994  0078  0CF8               	rrf	??_I2C1_ISR,f
  3995  0079  0878               	movf	??_I2C1_ISR,w
  3996  007A  008C               	movwf	12	;volatile
  3997                           
  3998                           ;i2c1.c: 326: if(i2c_address & 0x01)
  3999  007B  1C74               	btfss	I2C1_ISR@i2c_address,0
  4000  007C  2882               	goto	i1l1318
  4001                           
  4002                           ;i2c1.c: 327: {;i2c1.c: 330: i2c1_state = S_MASTER_10BIT_RESTART;
  4003  007D  300B               	movlw	11
  4004  007E  00F8               	movwf	??_I2C1_ISR
  4005  007F  0878               	movf	??_I2C1_ISR,w
  4006  0080  00F3               	movwf	_i2c1_state
  4007                           
  4008                           ;i2c1.c: 331: }
  4009  0081  0008               	return
  4010  0082                     i1l1318:	
  4011                           
  4012                           ;i2c1.c: 332: else;i2c1.c: 333: {;i2c1.c: 335: i2c1_state = S_MASTER_SEND_DATA;
  4013  0082  3003               	movlw	3
  4014  0083  00F8               	movwf	??_I2C1_ISR
  4015  0084  0878               	movf	??_I2C1_ISR,w
  4016  0085  00F3               	movwf	_i2c1_state
  4017  0086  0008               	return
  4018  0087                     i1l177:	
  4019                           ;i2c1.c: 341: case S_MASTER_10BIT_RESTART:
  4020                           
  4021                           
  4022                           ;i2c1.c: 343: if(SSP1CON2bits.ACKSTAT)
  4023  0087  1F11               	btfss	17,6	;volatile
  4024  0088  2892               	goto	i1l178
  4025                           
  4026                           ;i2c1.c: 344: {;i2c1.c: 345: i2c1_object.i2cErrors++;
  4027  0089  3001               	movlw	1
  4028  008A  00F8               	movwf	??_I2C1_ISR
  4029  008B  0878               	movf	??_I2C1_ISR,w
  4030  008C  0140               	movlb	0	; select bank0
  4031  008D  07B8               	addwf	_i2c1_object+4,f
  4032                           
  4033                           ;i2c1.c: 346: I2C1_Stop(I2C1_MESSAGE_ADDRESS_NO_ACK);
  4034  008E  3004               	movlw	4
  4035  008F  3182  2251         	fcall	_I2C1_Stop
  4036                           
  4037                           ;i2c1.c: 347: }
  4038  0091  0008               	return
  4039  0092                     i1l178:	
  4040                           
  4041                           ;i2c1.c: 348: else;i2c1.c: 349: {;i2c1.c: 352: SSP1CON2bits.RSEN = 1;
  4042  0092  1491               	bsf	17,1	;volatile
  4043                           
  4044                           ;i2c1.c: 356: i2c_address = 0x00F0 | ((i2c_address >> 8) & 0x0006);
  4045  0093  0875               	movf	I2C1_ISR@i2c_address+1,w
  4046  0094  00F9               	movwf	??_I2C1_ISR+1
  4047  0095  0874               	movf	I2C1_ISR@i2c_address,w
  4048  0096  00F8               	movwf	??_I2C1_ISR
  4049  0097  0879               	movf	??_I2C1_ISR+1,w
  4050  0098  00F8               	movwf	??_I2C1_ISR
  4051  0099  01F9               	clrf	??_I2C1_ISR+1
  4052  009A  3006               	movlw	6
  4053  009B  0578               	andwf	??_I2C1_ISR,w
  4054  009C  00FA               	movwf	??_I2C1_ISR+2
  4055  009D  3000               	movlw	0
  4056  009E  0579               	andwf	??_I2C1_ISR+1,w
  4057  009F  00FB               	movwf	??_I2C1_ISR+3
  4058  00A0  30F0               	movlw	240
  4059  00A1  047A               	iorwf	??_I2C1_ISR+2,w
  4060  00A2  00F4               	movwf	I2C1_ISR@i2c_address
  4061  00A3  3000               	movlw	0
  4062  00A4  047B               	iorwf	??_I2C1_ISR+3,w
  4063  00A5  00F5               	movwf	I2C1_ISR@i2c_address+1
  4064                           
  4065                           ;i2c1.c: 359: i2c_address |= 0x0001;
  4066  00A6  1474               	bsf	I2C1_ISR@i2c_address,0
  4067                           
  4068                           ;i2c1.c: 362: i2c_10bit_address_restart = 1;
  4069  00A7  0140               	movlb	0	; select bank0
  4070  00A8  01B9               	clrf	I2C1_ISR@i2c_10bit_address_restart
  4071  00A9  0AB9               	incf	I2C1_ISR@i2c_10bit_address_restart,f
  4072  00AA  2862               	goto	i1l1304
  4073  00AB                     i1l1332:	
  4074                           
  4075                           ;i2c1.c: 383: if(i2c_10bit_address_restart != 1)
  4076  00AB  0140               	movlb	0	; select bank0
  4077  00AC  0339               	decf	I2C1_ISR@i2c_10bit_address_restart,w
  4078  00AD  1903               	btfsc	3,2
  4079  00AE  28C0               	goto	i1l1352
  4080                           
  4081                           ;i2c1.c: 384: {;i2c1.c: 386: i2c_address = p_i2c1_trb_current->address;
  4082  00AF  0871               	movf	_p_i2c1_trb_current,w
  4083  00B0  0086               	movwf	6
  4084  00B1  0187               	clrf	7
  4085  00B2  3F40               	moviw [0]fsr1
  4086  00B3  00F4               	movwf	I2C1_ISR@i2c_address
  4087  00B4  3F41               	moviw [1]fsr1
  4088  00B5  00F5               	movwf	I2C1_ISR@i2c_address+1
  4089                           
  4090                           ;i2c1.c: 387: pi2c_buf_ptr = p_i2c1_trb_current->pbuffer;
  4091  00B6  0871               	movf	_p_i2c1_trb_current,w
  4092  00B7  0086               	movwf	6
  4093  00B8  0187               	clrf	7
  4094  00B9  3F43               	moviw [3]fsr1
  4095  00BA  00BB               	movwf	I2C1_ISR@pi2c_buf_ptr
  4096                           
  4097                           ;i2c1.c: 388: i2c_bytes_left = p_i2c1_trb_current->length;
  4098  00BB  0871               	movf	_p_i2c1_trb_current,w
  4099  00BC  0086               	movwf	6
  4100  00BD  0187               	clrf	7
  4101  00BE  3F42               	moviw [2]fsr1
  4102  00BF  00BA               	movwf	I2C1_ISR@i2c_bytes_left
  4103  00C0                     i1l1352:	
  4104                           
  4105                           ;i2c1.c: 411: else;i2c1.c: 412: {;i2c1.c: 414: SSP1BUF = i2c_address;
  4106  00C0  0874               	movf	I2C1_ISR@i2c_address,w
  4107  00C1  0143               	movlb	3	; select bank3
  4108  00C2  008C               	movwf	12	;volatile
  4109                           
  4110                           ;i2c1.c: 415: if(i2c_address & 0x01)
  4111  00C3  1C74               	btfss	I2C1_ISR@i2c_address,0
  4112  00C4  2882               	goto	i1l1318
  4113                           
  4114                           ;i2c1.c: 416: {;i2c1.c: 418: i2c1_state = S_MASTER_ACK_ADDR;
  4115  00C5  3005               	movlw	5
  4116  00C6  00F8               	movwf	??_I2C1_ISR
  4117  00C7  0878               	movf	??_I2C1_ISR,w
  4118  00C8  00F3               	movwf	_i2c1_state
  4119                           
  4120                           ;i2c1.c: 419: }
  4121  00C9  0008               	return
  4122  00CA                     i1l188:	
  4123                           ;i2c1.c: 428: case S_MASTER_SEND_DATA:
  4124                           
  4125                           
  4126                           ;i2c1.c: 431: if(SSP1CON2bits.ACKSTAT)
  4127  00CA  1F11               	btfss	17,6	;volatile
  4128  00CB  28D7               	goto	i1l1366
  4129                           
  4130                           ;i2c1.c: 432: {;i2c1.c: 434: i2c1_object.i2cErrors++;
  4131  00CC  3001               	movlw	1
  4132  00CD  00F8               	movwf	??_I2C1_ISR
  4133  00CE  0878               	movf	??_I2C1_ISR,w
  4134  00CF  0140               	movlb	0	; select bank0
  4135  00D0  07B8               	addwf	_i2c1_object+4,f
  4136                           
  4137                           ;i2c1.c: 437: SSP1CON2bits.ACKSTAT = 0;
  4138  00D1  0143               	movlb	3	; select bank3
  4139  00D2  1311               	bcf	17,6	;volatile
  4140                           
  4141                           ;i2c1.c: 440: I2C1_Stop(I2C1_DATA_NO_ACK);
  4142  00D3  3005               	movlw	5
  4143  00D4  3182  2251         	fcall	_I2C1_Stop
  4144                           
  4145                           ;i2c1.c: 442: }
  4146  00D6  0008               	return
  4147  00D7                     i1l1366:	
  4148                           
  4149                           ;i2c1.c: 443: else;i2c1.c: 444: {;i2c1.c: 446: if(i2c_bytes_left-- == 0U)
  4150  00D7  3001               	movlw	1
  4151  00D8  0140               	movlb	0	; select bank0
  4152  00D9  02BA               	subwf	I2C1_ISR@i2c_bytes_left,f
  4153  00DA  0A3A               	incf	I2C1_ISR@i2c_bytes_left,w
  4154  00DB  1D03               	btfss	3,2
  4155  00DC  28EC               	goto	i1l1374
  4156                           
  4157                           ;i2c1.c: 447: {;i2c1.c: 451: p_i2c1_trb_current++;
  4158  00DD  3004               	movlw	4
  4159  00DE  00F8               	movwf	??_I2C1_ISR
  4160  00DF  0878               	movf	??_I2C1_ISR,w
  4161  00E0  07F1               	addwf	_p_i2c1_trb_current,f
  4162                           
  4163                           ;i2c1.c: 454: if(--i2c1_trb_count == 0)
  4164  00E1  3001               	movlw	1
  4165  00E2  02F2               	subwf	_i2c1_trb_count,f
  4166  00E3  1D03               	btfss	3,2
  4167  00E4  28E9               	goto	i1l192
  4168                           
  4169                           ;i2c1.c: 455: {;i2c1.c: 456: I2C1_Stop(I2C1_MESSAGE_COMPLETE);
  4170  00E5  3000               	movlw	0
  4171  00E6  3182  2251         	fcall	_I2C1_Stop
  4172                           
  4173                           ;i2c1.c: 457: }
  4174  00E8  0008               	return
  4175  00E9                     i1l192:	
  4176                           
  4177                           ;i2c1.c: 458: else;i2c1.c: 459: {;i2c1.c: 466: SSP1CON2bits.RSEN = 1;
  4178  00E9  0143               	movlb	3	; select bank3
  4179  00EA                     L4:	
  4180  00EA  1491               	bsf	17,1	;volatile
  4181  00EB  2862               	goto	i1l1304
  4182  00EC                     i1l1374:	
  4183                           
  4184                           ;i2c1.c: 473: else;i2c1.c: 474: {;i2c1.c: 476: SSP1BUF = *pi2c_buf_ptr++;
  4185  00EC  083B               	movf	I2C1_ISR@pi2c_buf_ptr,w
  4186  00ED  0086               	movwf	6
  4187  00EE  0187               	clrf	7
  4188  00EF  0801               	movf	1,w
  4189  00F0  0143               	movlb	3	; select bank3
  4190  00F1  008C               	movwf	12	;volatile
  4191  00F2  3001               	movlw	1
  4192  00F3  00F8               	movwf	??_I2C1_ISR
  4193  00F4  0878               	movf	??_I2C1_ISR,w
  4194  00F5  0140               	movlb	0	; select bank0
  4195  00F6  07BB               	addwf	I2C1_ISR@pi2c_buf_ptr,f
  4196  00F7  0008               	return
  4197  00F8                     i1l195:	
  4198                           ;i2c1.c: 481: case S_MASTER_ACK_ADDR:
  4199                           
  4200                           
  4201                           ;i2c1.c: 484: if(SSP1CON2bits.ACKSTAT)
  4202  00F8  1F11               	btfss	17,6	;volatile
  4203  00F9  2905               	goto	i1l196
  4204                           
  4205                           ;i2c1.c: 485: {;i2c1.c: 488: i2c1_object.i2cErrors++;
  4206  00FA  3001               	movlw	1
  4207  00FB  00F8               	movwf	??_I2C1_ISR
  4208  00FC  0878               	movf	??_I2C1_ISR,w
  4209  00FD  0140               	movlb	0	; select bank0
  4210  00FE  07B8               	addwf	_i2c1_object+4,f
  4211                           
  4212                           ;i2c1.c: 491: I2C1_Stop(I2C1_MESSAGE_ADDRESS_NO_ACK);
  4213  00FF  3004               	movlw	4
  4214  0100  3182  2251         	fcall	_I2C1_Stop
  4215                           
  4216                           ;i2c1.c: 494: SSP1CON2bits.ACKSTAT = 0;
  4217  0102  0143               	movlb	3	; select bank3
  4218  0103  1311               	bcf	17,6	;volatile
  4219                           
  4220                           ;i2c1.c: 495: }
  4221  0104  0008               	return
  4222  0105                     i1l196:	
  4223                           
  4224                           ;i2c1.c: 496: else;i2c1.c: 497: {;i2c1.c: 498: SSP1CON2bits.RCEN = 1;
  4225  0105  1591               	bsf	17,3	;volatile
  4226                           
  4227                           ;i2c1.c: 499: i2c1_state = S_MASTER_ACK_RCV_DATA;
  4228  0106  3008               	movlw	8
  4229  0107  00F8               	movwf	??_I2C1_ISR
  4230  0108  0878               	movf	??_I2C1_ISR,w
  4231  0109  00F3               	movwf	_i2c1_state
  4232  010A  0008               	return
  4233  010B                     i1l1386:	
  4234                           
  4235                           ;i2c1.c: 508: i2c1_state = S_MASTER_ACK_RCV_DATA;
  4236  010B  3008               	movlw	8
  4237  010C  00F8               	movwf	??_I2C1_ISR
  4238  010D  0878               	movf	??_I2C1_ISR,w
  4239  010E  00F3               	movwf	_i2c1_state
  4240                           
  4241                           ;i2c1.c: 511: SSP1CON2bits.RCEN = 1;
  4242  010F  1591               	bsf	17,3	;volatile
  4243                           
  4244                           ;i2c1.c: 513: break;
  4245  0110  0008               	return
  4246  0111                     i1l1390:	
  4247                           
  4248                           ;i2c1.c: 518: *pi2c_buf_ptr++ = SSP1BUF;
  4249  0111  080C               	movf	12,w	;volatile
  4250  0112  00F8               	movwf	??_I2C1_ISR
  4251  0113  0140               	movlb	0	; select bank0
  4252  0114  083B               	movf	I2C1_ISR@pi2c_buf_ptr,w
  4253  0115  0086               	movwf	6
  4254  0116  0187               	clrf	7
  4255  0117  0878               	movf	??_I2C1_ISR,w
  4256  0118  0081               	movwf	1
  4257  0119  3001               	movlw	1
  4258  011A  00F8               	movwf	??_I2C1_ISR
  4259  011B  0878               	movf	??_I2C1_ISR,w
  4260  011C  07BB               	addwf	I2C1_ISR@pi2c_buf_ptr,f
  4261                           
  4262                           ;i2c1.c: 521: if(--i2c_bytes_left)
  4263  011D  3001               	movlw	1
  4264  011E  02BA               	subwf	I2C1_ISR@i2c_bytes_left,f
  4265  011F  1903               	btfsc	3,2
  4266  0120  2928               	goto	i1l200
  4267                           
  4268                           ;i2c1.c: 522: {;i2c1.c: 528: SSP1CON2bits.ACKDT = 0;
  4269  0121  0143               	movlb	3	; select bank3
  4270  0122  1291               	bcf	17,5	;volatile
  4271                           
  4272                           ;i2c1.c: 531: i2c1_state = S_MASTER_RCV_DATA;
  4273  0123  3006               	movlw	6
  4274  0124  00F8               	movwf	??_I2C1_ISR
  4275  0125  0878               	movf	??_I2C1_ISR,w
  4276  0126  00F3               	movwf	_i2c1_state
  4277                           
  4278                           ;i2c1.c: 532: }
  4279  0127  292C               	goto	i1l1402
  4280  0128                     i1l200:	
  4281                           
  4282                           ;i2c1.c: 533: else;i2c1.c: 534: {;i2c1.c: 538: SSP1CON2bits.ACKDT = 1;
  4283  0128  0143               	movlb	3	; select bank3
  4284  0129  1691               	bsf	17,5	;volatile
  4285                           
  4286                           ;i2c1.c: 540: I2C1_FunctionComplete();
  4287  012A  3182  227A         	fcall	_I2C1_FunctionComplete
  4288  012C                     i1l1402:	
  4289                           
  4290                           ;i2c1.c: 541: };i2c1.c: 544: SSP1CON2bits.ACKEN = 1;
  4291  012C  0143               	movlb	3	; select bank3
  4292  012D  1611               	bsf	17,4	;volatile
  4293                           
  4294                           ;i2c1.c: 545: break;
  4295  012E  0008               	return
  4296  012F                     i1l1404:	
  4297                           
  4298                           ;i2c1.c: 548: case S_MASTER_SEND_STOP:;i2c1.c: 551: I2C1_Stop(I2C1_MESSAGE_COMPLETE);
  4299  012F  3000               	movlw	0
  4300  0130  3182  2251         	fcall	_I2C1_Stop
  4301                           
  4302                           ;i2c1.c: 552: break;
  4303  0132  0008               	return
  4304  0133                     i1l1406:	
  4305                           
  4306                           ;i2c1.c: 558: i2c1_object.i2cErrors++;
  4307  0133  3001               	movlw	1
  4308  0134  00F8               	movwf	??_I2C1_ISR
  4309  0135  0878               	movf	??_I2C1_ISR,w
  4310  0136  0140               	movlb	0	; select bank0
  4311  0137  07B8               	addwf	_i2c1_object+4,f
  4312                           
  4313                           ;i2c1.c: 559: I2C1_Stop(I2C1_LOST_STATE);
  4314  0138  3006               	movlw	6
  4315  0139  3182  2251         	fcall	_I2C1_Stop
  4316                           
  4317                           ;i2c1.c: 560: break;
  4318  013B  0008               	return
  4319  013C                     i1l1412:	
  4320  013C  0873               	movf	_i2c1_state,w
  4321                           
  4322                           ; Switch size 1, requested type "simple"
  4323                           ; Number of cases is 11, Range of values is 0 to 11
  4324                           ; switch strategies available:
  4325                           ; Name         Instructions Cycles
  4326                           ; direct_byte           30     6 (fixed)
  4327                           ; simple_byte           34    18 (average)
  4328                           ; jumptable            260     6 (fixed)
  4329                           ;	Chosen strategy is simple_byte
  4330  013D  3A00               	xorlw	0	; case 0
  4331  013E  1903               	skipnz
  4332  013F  283C               	goto	i1l166
  4333  0140  3A01               	xorlw	1	; case 1
  4334  0141  1903               	skipnz
  4335  0142  2867               	goto	i1l171
  4336  0143  3A03               	xorlw	3	; case 2
  4337  0144  1903               	skipnz
  4338  0145  28AB               	goto	i1l1332
  4339  0146  3A01               	xorlw	1	; case 3
  4340  0147  1903               	skipnz
  4341  0148  28CA               	goto	i1l188
  4342  0149  3A07               	xorlw	7	; case 4
  4343  014A  1903               	skipnz
  4344  014B  292F               	goto	i1l1404
  4345  014C  3A01               	xorlw	1	; case 5
  4346  014D  1903               	skipnz
  4347  014E  28F8               	goto	i1l195
  4348  014F  3A03               	xorlw	3	; case 6
  4349  0150  1903               	skipnz
  4350  0151  290B               	goto	i1l1386
  4351  0152  3A01               	xorlw	1	; case 7
  4352  0153  1903               	skipnz
  4353  0154  292F               	goto	i1l1404
  4354  0155  3A0F               	xorlw	15	; case 8
  4355  0156  1903               	skipnz
  4356  0157  2911               	goto	i1l1390
  4357  0158  3A02               	xorlw	2	; case 10
  4358  0159  1903               	skipnz
  4359  015A  2868               	goto	i1l172
  4360  015B  3A01               	xorlw	1	; case 11
  4361  015C  1903               	skipnz
  4362  015D  2887               	goto	i1l177
  4363  015E  2933               	goto	i1l1406
  4364  015F  0008               	return
  4365  0160                     __end_of_I2C1_ISR:	
  4366                           
  4367                           	psect	text11
  4368  0251                     __ptext11:	
  4369 ;; *************** function _I2C1_Stop *****************
  4370 ;; Defined at:
  4371 ;;		line 583 in file "mcc_generated_files/i2c1.c"
  4372 ;; Parameters:    Size  Location     Type
  4373 ;;  completion_c    1    wreg     enum E10210
  4374 ;; Auto vars:     Size  Location     Type
  4375 ;;  completion_c    1    1[COMMON] enum E10210
  4376 ;; Return value:  Size  Location     Type
  4377 ;;                  1    wreg      void 
  4378 ;; Registers used:
  4379 ;;		wreg, fsr1l, fsr1h, status,2, status,0
  4380 ;; Tracked objects:
  4381 ;;		On entry : 0/0
  4382 ;;		On exit  : 0/0
  4383 ;;		Unchanged: 0/0
  4384 ;; Data sizes:     COMMON   BANK0   BANK1   BANK2   BANK3   BANK4   BANK5   BANK6   BANK7   BANK8   BANK9  BANK10  BANK1
      +1  BANK12  BANK13  BANK14  BANK15  BANK16  BANK17  BANK18  BANK19  BANK20  BANK21  BANK22  BANK23  BANK24  BANK25
  4385 ;;      Params:         0       0       0       0       0       0       0       0       0       0       0       0       
      +0       0       0       0       0       0       0       0       0       0       0       0       0       0       0
  4386 ;;      Locals:         1       0       0       0       0       0       0       0       0       0       0       0       
      +0       0       0       0       0       0       0       0       0       0       0       0       0       0       0
  4387 ;;      Temps:          1       0       0       0       0       0       0       0       0       0       0       0       
      +0       0       0       0       0       0       0       0       0       0       0       0       0       0       0
  4388 ;;      Totals:         2       0       0       0       0       0       0       0       0       0       0       0       
      +0       0       0       0       0       0       0       0       0       0       0       0       0       0       0
  4389 ;;Total ram usage:        2 bytes
  4390 ;; Hardware stack levels used:    1
  4391 ;; This function calls:
  4392 ;;		Nothing
  4393 ;; This function is called by:
  4394 ;;		_I2C1_ISR
  4395 ;; This function uses a non-reentrant model
  4396 ;;
  4397                           
  4398                           
  4399                           ;psect for function _I2C1_Stop
  4400  0251                     _I2C1_Stop:	
  4401                           
  4402                           ;incstack = 0
  4403                           ; Regs used in _I2C1_Stop: [wreg+fsr1l+fsr1h+status,2+status,0]
  4404                           ;I2C1_Stop@completion_code stored from wreg
  4405  0251  00F7               	movwf	I2C1_Stop@completion_code
  4406                           
  4407                           ;i2c1.c: 586: SSP1CON2bits.PEN = 1;
  4408  0252  0143               	movlb	3	; select bank3
  4409  0253  1511               	bsf	17,2	;volatile
  4410                           
  4411                           ;i2c1.c: 589: if (p_i2c1_current->pTrFlag != (0))
  4412  0254  0870               	movf	_p_i2c1_current,w
  4413  0255  3E02               	addlw	2
  4414  0256  0086               	movwf	6
  4415  0257  0187               	clrf	7
  4416  0258  0801               	movf	1,w
  4417  0259  1903               	btfsc	3,2
  4418  025A  2A66               	goto	i1l1242
  4419                           
  4420                           ;i2c1.c: 590: {;i2c1.c: 592: *(p_i2c1_current->pTrFlag) = completion_code;
  4421  025B  0877               	movf	I2C1_Stop@completion_code,w
  4422  025C  00F6               	movwf	??_I2C1_Stop
  4423  025D  0870               	movf	_p_i2c1_current,w
  4424  025E  3E02               	addlw	2
  4425  025F  0086               	movwf	6
  4426  0260  0187               	clrf	7
  4427  0261  0801               	movf	1,w
  4428  0262  0086               	movwf	6
  4429  0263  0187               	clrf	7
  4430  0264  0876               	movf	??_I2C1_Stop,w
  4431  0265  0081               	movwf	1
  4432  0266                     i1l1242:	
  4433                           
  4434                           ;i2c1.c: 593: };i2c1.c: 596: i2c1_state = S_MASTER_IDLE;
  4435  0266  01F3               	clrf	_i2c1_state
  4436  0267  0008               	return
  4437  0268                     __end_of_I2C1_Stop:	
  4438                           
  4439                           	psect	text12
  4440  027A                     __ptext12:	
  4441 ;; *************** function _I2C1_FunctionComplete *****************
  4442 ;; Defined at:
  4443 ;;		line 565 in file "mcc_generated_files/i2c1.c"
  4444 ;; Parameters:    Size  Location     Type
  4445 ;;		None
  4446 ;; Auto vars:     Size  Location     Type
  4447 ;;		None
  4448 ;; Return value:  Size  Location     Type
  4449 ;;                  1    wreg      void 
  4450 ;; Registers used:
  4451 ;;		wreg, status,2, status,0
  4452 ;; Tracked objects:
  4453 ;;		On entry : 0/0
  4454 ;;		On exit  : 0/0
  4455 ;;		Unchanged: 0/0
  4456 ;; Data sizes:     COMMON   BANK0   BANK1   BANK2   BANK3   BANK4   BANK5   BANK6   BANK7   BANK8   BANK9  BANK10  BANK1
      +1  BANK12  BANK13  BANK14  BANK15  BANK16  BANK17  BANK18  BANK19  BANK20  BANK21  BANK22  BANK23  BANK24  BANK25
  4457 ;;      Params:         0       0       0       0       0       0       0       0       0       0       0       0       
      +0       0       0       0       0       0       0       0       0       0       0       0       0       0       0
  4458 ;;      Locals:         0       0       0       0       0       0       0       0       0       0       0       0       
      +0       0       0       0       0       0       0       0       0       0       0       0       0       0       0
  4459 ;;      Temps:          1       0       0       0       0       0       0       0       0       0       0       0       
      +0       0       0       0       0       0       0       0       0       0       0       0       0       0       0
  4460 ;;      Totals:         1       0       0       0       0       0       0       0       0       0       0       0       
      +0       0       0       0       0       0       0       0       0       0       0       0       0       0       0
  4461 ;;Total ram usage:        1 bytes
  4462 ;; Hardware stack levels used:    1
  4463 ;; This function calls:
  4464 ;;		Nothing
  4465 ;; This function is called by:
  4466 ;;		_I2C1_ISR
  4467 ;; This function uses a non-reentrant model
  4468 ;;
  4469                           
  4470                           
  4471                           ;psect for function _I2C1_FunctionComplete
  4472  027A                     _I2C1_FunctionComplete:	
  4473                           
  4474                           ;i2c1.c: 569: p_i2c1_trb_current++;
  4475                           
  4476                           ;incstack = 0
  4477                           ; Regs used in _I2C1_FunctionComplete: [wreg+status,2+status,0]
  4478  027A  3004               	movlw	4
  4479  027B  00F6               	movwf	??_I2C1_FunctionComplete
  4480  027C  0876               	movf	??_I2C1_FunctionComplete,w
  4481  027D  07F1               	addwf	_p_i2c1_trb_current,f
  4482                           
  4483                           ;i2c1.c: 572: if(--i2c1_trb_count == 0)
  4484  027E  3001               	movlw	1
  4485  027F  02F2               	subwf	_i2c1_trb_count,f
  4486  0280  1D03               	btfss	3,2
  4487  0281  2A87               	goto	i1l207
  4488                           
  4489                           ;i2c1.c: 573: {;i2c1.c: 574: i2c1_state = S_MASTER_SEND_STOP;
  4490  0282  3004               	movlw	4
  4491  0283  00F6               	movwf	??_I2C1_FunctionComplete
  4492  0284  0876               	movf	??_I2C1_FunctionComplete,w
  4493  0285  00F3               	movwf	_i2c1_state
  4494                           
  4495                           ;i2c1.c: 575: }
  4496  0286  0008               	return
  4497  0287                     i1l207:	
  4498                           
  4499                           ;i2c1.c: 576: else;i2c1.c: 577: {;i2c1.c: 578: i2c1_state = S_MASTER_RESTART;
  4500  0287  01F3               	clrf	_i2c1_state
  4501  0288  0AF3               	incf	_i2c1_state,f
  4502  0289  0008               	return
  4503  028A                     __end_of_I2C1_FunctionComplete:	
  4504                           
  4505                           	psect	text13
  4506  02B8                     __ptext13:	
  4507 ;; *************** function _I2C1_BusCollisionISR *****************
  4508 ;; Defined at:
  4509 ;;		line 742 in file "mcc_generated_files/i2c1.c"
  4510 ;; Parameters:    Size  Location     Type
  4511 ;;		None
  4512 ;; Auto vars:     Size  Location     Type
  4513 ;;		None
  4514 ;; Return value:  Size  Location     Type
  4515 ;;                  1    wreg      void 
  4516 ;; Registers used:
  4517 ;;		None
  4518 ;; Tracked objects:
  4519 ;;		On entry : 0/0
  4520 ;;		On exit  : 0/0
  4521 ;;		Unchanged: 0/0
  4522 ;; Data sizes:     COMMON   BANK0   BANK1   BANK2   BANK3   BANK4   BANK5   BANK6   BANK7   BANK8   BANK9  BANK10  BANK1
      +1  BANK12  BANK13  BANK14  BANK15  BANK16  BANK17  BANK18  BANK19  BANK20  BANK21  BANK22  BANK23  BANK24  BANK25
  4523 ;;      Params:         0       0       0       0       0       0       0       0       0       0       0       0       
      +0       0       0       0       0       0       0       0       0       0       0       0       0       0       0
  4524 ;;      Locals:         0       0       0       0       0       0       0       0       0       0       0       0       
      +0       0       0       0       0       0       0       0       0       0       0       0       0       0       0
  4525 ;;      Temps:          0       0       0       0       0       0       0       0       0       0       0       0       
      +0       0       0       0       0       0       0       0       0       0       0       0       0       0       0
  4526 ;;      Totals:         0       0       0       0       0       0       0       0       0       0       0       0       
      +0       0       0       0       0       0       0       0       0       0       0       0       0       0       0
  4527 ;;Total ram usage:        0 bytes
  4528 ;; Hardware stack levels used:    1
  4529 ;; This function calls:
  4530 ;;		Nothing
  4531 ;; This function is called by:
  4532 ;;		_INTERRUPT_InterruptManager
  4533 ;; This function uses a non-reentrant model
  4534 ;;
  4535                           
  4536                           
  4537                           ;psect for function _I2C1_BusCollisionISR
  4538  02B8                     _I2C1_BusCollisionISR:	
  4539                           
  4540                           ;i2c1.c: 745: PIR3bits.BCL1IF = 0;
  4541                           
  4542                           ;incstack = 0
  4543                           ; Regs used in _I2C1_BusCollisionISR: []
  4544  02B8  014E               	movlb	14	; select bank14
  4545  02B9  108F               	bcf	15,1	;volatile
  4546  02BA  0008               	return
  4547  02BB                     __end_of_I2C1_BusCollisionISR:	
  4548  007E                     btemp	set	126	;btemp
  4549  007E                     int$flags	set	126
  4550  007E                     wtemp0	set	126


Data Sizes:
    Strings     0
    Constant    0
    Data        0
    BSS         25
    Persistent  32
    Stack       0

Auto Spaces:
    Space          Size  Autos    Used
    COMMON           14      6      12
    BANK0            80     20      39
    BANK1            80      0       0
    BANK2            80      0       0
    BANK3            80      0       0
    BANK4            80      0       0
    BANK5            80      0       0
    BANK6            80      0       0
    BANK7            80      0       0
    BANK8            80      0       0
    BANK9            80      0       0
    BANK10           80      0       0
    BANK11           80      0       0
    BANK12           80      0       0
    BANK13           80      0       0
    BANK14           80      0       0
    BANK15           80      0       0
    BANK16           80      0       0
    BANK17           80      0       0
    BANK18           80      0       0
    BANK19           80      0       0
    BANK20           80      0       0
    BANK21           80      0       0
    BANK22           80      0       0
    BANK23           80      0       0
    BANK24           80      0       0
    BANK25           32      0       0

Pointer List with Targets:

    i2c1_tr_queue.ptrb_list.pbuffer	PTR unsigned char  size(1) Largest target is 0

    i2c1_tr_queue.pTrFlag	PTR enum E10210 size(1) Largest target is 0

    i2c1_tr_queue.ptrb_list	PTR struct . size(1) Largest target is 5
		 -> I2C1_MasterRead@trBlock(BANK0[4]), I2C1_MasterWrite@trBlock(BANK0[4]), 

    I2C1_MasterWriteTRBBuild@ptrb.pbuffer	PTR unsigned char  size(1) Largest target is 0

    I2C1_MasterReadTRBBuild@ptrb.pbuffer	PTR unsigned char  size(1) Largest target is 0

    i2c1_object.pTrTail.ptrb_list.pbuffer	PTR unsigned char  size(1) Largest target is 0

    i2c1_object.pTrTail.pTrFlag	PTR enum E10210 size(1) Largest target is 0

    i2c1_object.pTrTail.ptrb_list	PTR struct . size(1) Largest target is 5
		 -> I2C1_MasterRead@trBlock(BANK0[4]), I2C1_MasterWrite@trBlock(BANK0[4]), 

    F10325.pbuffer	PTR unsigned char  size(1) Largest target is 0

    F10320.pbuffer	PTR unsigned char  size(1) Largest target is 0

    I2C1_ISR@pi2c_buf_ptr	PTR unsigned char  size(1) Largest target is 0
		 -> NULL(NULL[0]), 

    p_i2c1_trb_current.pbuffer	PTR unsigned char  size(1) Largest target is 0

    p_i2c1_trb_current	PTR struct . size(1) Largest target is 5
		 -> I2C1_MasterRead@trBlock(BANK0[4]), I2C1_MasterWrite@trBlock(BANK0[4]), NULL(NULL[0]), 

    i2c1_object.pTrHead.pTrFlag	PTR enum E10210 size(1) Largest target is 0

    i2c1_object.pTrHead.ptrb_list	PTR struct . size(1) Largest target is 5
		 -> I2C1_MasterRead@trBlock(BANK0[4]), I2C1_MasterWrite@trBlock(BANK0[4]), 

    S150$pbuffer	PTR unsigned char  size(1) Largest target is 0

    p_i2c1_current.pbuffer	PTR unsigned char  size(1) Largest target is 0

    S162$pTrFlag	PTR enum E10210 size(1) Largest target is 0

    p_i2c1_current.pTrFlag	PTR enum E10210 size(1) Largest target is 0

    S162$ptrb_list	PTR struct . size(1) Largest target is 5
		 -> I2C1_MasterRead@trBlock(BANK0[4]), I2C1_MasterWrite@trBlock(BANK0[4]), 

    p_i2c1_current.ptrb_list	PTR struct . size(1) Largest target is 5
		 -> I2C1_MasterRead@trBlock(BANK0[4]), I2C1_MasterWrite@trBlock(BANK0[4]), 

    p_i2c1_current	PTR volatile struct . size(1) Largest target is 5
		 -> i2c1_tr_queue(BANK0[3]), NULL(NULL[0]), 

    S173$pTrHead	PTR struct . size(1) Largest target is 5
		 -> i2c1_tr_queue(BANK0[3]), 

    i2c1_object.pTrHead	PTR struct . size(1) Largest target is 5
		 -> i2c1_tr_queue(BANK0[3]), 

    S173$pTrTail	PTR struct . size(1) Largest target is 5
		 -> i2c1_tr_queue(BANK0[3]), 

    i2c1_object.pTrTail	PTR struct . size(1) Largest target is 5
		 -> i2c1_tr_queue(BANK0[3]), 


Critical Paths under _main in COMMON

    None.

Critical Paths under _INTERRUPT_InterruptManager in COMMON

    _INTERRUPT_InterruptManager->_I2C1_ISR
    _I2C1_ISR->_I2C1_Stop

Critical Paths under _main in BANK0

    _main->_WSLoop
    _WSLoop->_WS_Word
    _WS_Word->_WS_Write
    _SYSTEM_Initialize->_I2C1_Initialize

Critical Paths under _INTERRUPT_InterruptManager in BANK0

    None.

Critical Paths under _main in BANK1

    None.

Critical Paths under _INTERRUPT_InterruptManager in BANK1

    None.

Critical Paths under _main in BANK2

    None.

Critical Paths under _INTERRUPT_InterruptManager in BANK2

    None.

Critical Paths under _main in BANK3

    None.

Critical Paths under _INTERRUPT_InterruptManager in BANK3

    None.

Critical Paths under _main in BANK4

    None.

Critical Paths under _INTERRUPT_InterruptManager in BANK4

    None.

Critical Paths under _main in BANK5

    None.

Critical Paths under _INTERRUPT_InterruptManager in BANK5

    None.

Critical Paths under _main in BANK6

    None.

Critical Paths under _INTERRUPT_InterruptManager in BANK6

    None.

Critical Paths under _main in BANK7

    None.

Critical Paths under _INTERRUPT_InterruptManager in BANK7

    None.

Critical Paths under _main in BANK8

    None.

Critical Paths under _INTERRUPT_InterruptManager in BANK8

    None.

Critical Paths under _main in BANK9

    None.

Critical Paths under _INTERRUPT_InterruptManager in BANK9

    None.

Critical Paths under _main in BANK10

    None.

Critical Paths under _INTERRUPT_InterruptManager in BANK10

    None.

Critical Paths under _main in BANK11

    None.

Critical Paths under _INTERRUPT_InterruptManager in BANK11

    None.

Critical Paths under _main in BANK12

    None.

Critical Paths under _INTERRUPT_InterruptManager in BANK12

    None.

Critical Paths under _main in BANK13

    None.

Critical Paths under _INTERRUPT_InterruptManager in BANK13

    None.

Critical Paths under _main in BANK14

    None.

Critical Paths under _INTERRUPT_InterruptManager in BANK14

    None.

Critical Paths under _main in BANK15

    None.

Critical Paths under _INTERRUPT_InterruptManager in BANK15

    None.

Critical Paths under _main in BANK16

    None.

Critical Paths under _INTERRUPT_InterruptManager in BANK16

    None.

Critical Paths under _main in BANK17

    None.

Critical Paths under _INTERRUPT_InterruptManager in BANK17

    None.

Critical Paths under _main in BANK18

    None.

Critical Paths under _INTERRUPT_InterruptManager in BANK18

    None.

Critical Paths under _main in BANK19

    None.

Critical Paths under _INTERRUPT_InterruptManager in BANK19

    None.

Critical Paths under _main in BANK20

    None.

Critical Paths under _INTERRUPT_InterruptManager in BANK20

    None.

Critical Paths under _main in BANK21

    None.

Critical Paths under _INTERRUPT_InterruptManager in BANK21

    None.

Critical Paths under _main in BANK22

    None.

Critical Paths under _INTERRUPT_InterruptManager in BANK22

    None.

Critical Paths under _main in BANK23

    None.

Critical Paths under _INTERRUPT_InterruptManager in BANK23

    None.

Critical Paths under _main in BANK24

    None.

Critical Paths under _INTERRUPT_InterruptManager in BANK24

    None.

Critical Paths under _main in BANK25

    None.

Critical Paths under _INTERRUPT_InterruptManager in BANK25

    None.

Call Graph Tables:

 ---------------------------------------------------------------------------------
 (Depth) Function   	        Calls       Base Space   Used Autos Params    Refs
 ---------------------------------------------------------------------------------
 (0) _main                                                 0     0      0    1371
                  _SYSTEM_Initialize
                             _WSLoop
 ---------------------------------------------------------------------------------
 (1) _WSLoop                                               2     2      0    1371
                                             18 BANK0      2     2      0
                            _WS_Word
 ---------------------------------------------------------------------------------
 (2) _WS_Word                                             16    14      2    1371
                                              2 BANK0     16    14      2
                           _WS_Write
 ---------------------------------------------------------------------------------
 (3) _WS_Write                                             2     0      2      96
                                              0 BANK0      2     0      2
 ---------------------------------------------------------------------------------
 (1) _SYSTEM_Initialize                                    0     0      0       0
                    _I2C1_Initialize
              _OSCILLATOR_Initialize
             _PIN_MANAGER_Initialize
                     _PMD_Initialize
 ---------------------------------------------------------------------------------
 (2) _PMD_Initialize                                       0     0      0       0
 ---------------------------------------------------------------------------------
 (2) _PIN_MANAGER_Initialize                               0     0      0       0
 ---------------------------------------------------------------------------------
 (2) _OSCILLATOR_Initialize                                0     0      0       0
 ---------------------------------------------------------------------------------
 (2) _I2C1_Initialize                                      1     1      0       0
                                              0 BANK0      1     1      0
 ---------------------------------------------------------------------------------
 Estimated maximum stack depth 3
 ---------------------------------------------------------------------------------
 (Depth) Function   	        Calls       Base Space   Used Autos Params    Refs
 ---------------------------------------------------------------------------------
 (4) _INTERRUPT_InterruptManager                           0     0      0      22
               _I2C1_BusCollisionISR
                           _I2C1_ISR
 ---------------------------------------------------------------------------------
 (5) _I2C1_ISR                                             4     4      0      22
                                              2 COMMON     4     4      0
              _I2C1_FunctionComplete
                          _I2C1_Stop
 ---------------------------------------------------------------------------------
 (6) _I2C1_Stop                                            2     2      0      22
                                              0 COMMON     2     2      0
 ---------------------------------------------------------------------------------
 (6) _I2C1_FunctionComplete                                1     1      0       0
                                              0 COMMON     1     1      0
 ---------------------------------------------------------------------------------
 (5) _I2C1_BusCollisionISR                                 0     0      0       0
 ---------------------------------------------------------------------------------
 Estimated maximum stack depth 6
 ---------------------------------------------------------------------------------

 Call Graph Graphs:

 _main (ROOT)
   _SYSTEM_Initialize
     _I2C1_Initialize
     _OSCILLATOR_Initialize
     _PIN_MANAGER_Initialize
     _PMD_Initialize
   _WSLoop
     _WS_Word
       _WS_Write

 _INTERRUPT_InterruptManager (ROOT)
   _I2C1_BusCollisionISR
   _I2C1_ISR
     _I2C1_FunctionComplete
     _I2C1_Stop

 Address spaces:
Name               Size   Autos  Total    Cost      Usage
BIGRAM             7F0      0       0       0        0.0%
EEDATA             100      0       0       0        0.0%
NULL                 0      0       0       0        0.0%
CODE                 0      0       0       0        0.0%
BITCOMMON            E      0       0       1        0.0%
BITSFR0              0      0       0       1        0.0%
SFR0                 0      0       0       1        0.0%
COMMON               E      6       C       2       85.7%
BITSFR1              0      0       0       2        0.0%
SFR1                 0      0       0       2        0.0%
BITSFR2              0      0       0       3        0.0%
SFR2                 0      0       0       3        0.0%
STACK                0      0       0       3        0.0%
BITBANK0            50      0       0       4        0.0%
BITSFR3              0      0       0       4        0.0%
SFR3                 0      0       0       4        0.0%
BANK0               50     14      27       5       48.8%
BITSFR4              0      0       0       5        0.0%
SFR4                 0      0       0       5        0.0%
BITSFR5              0      0       0       6        0.0%
SFR5                 0      0       0       6        0.0%
ABS                  0      0      33       6        0.0%
BITBANK1            50      0       0       7        0.0%
BITSFR6              0      0       0       7        0.0%
SFR6                 0      0       0       7        0.0%
BANK1               50      0       0       8        0.0%
BITSFR7              0      0       0       8        0.0%
SFR7                 0      0       0       8        0.0%
BITBANK2            50      0       0       9        0.0%
BITSFR8              0      0       0       9        0.0%
SFR8                 0      0       0       9        0.0%
BANK2               50      0       0      10        0.0%
BITSFR9              0      0       0      10        0.0%
SFR9                 0      0       0      10        0.0%
BITBANK3            50      0       0      11        0.0%
BITSFR10             0      0       0      11        0.0%
SFR10                0      0       0      11        0.0%
BANK3               50      0       0      12        0.0%
BITSFR11             0      0       0      12        0.0%
SFR11                0      0       0      12        0.0%
BITBANK4            50      0       0      13        0.0%
BITSFR12             0      0       0      13        0.0%
SFR12                0      0       0      13        0.0%
BANK4               50      0       0      14        0.0%
BITSFR13             0      0       0      14        0.0%
SFR13                0      0       0      14        0.0%
BITBANK5            50      0       0      15        0.0%
BITSFR14             0      0       0      15        0.0%
SFR14                0      0       0      15        0.0%
BANK5               50      0       0      16        0.0%
BITSFR15             0      0       0      16        0.0%
SFR15                0      0       0      16        0.0%
BITBANK6            50      0       0      17        0.0%
BITSFR16             0      0       0      17        0.0%
SFR16                0      0       0      17        0.0%
BANK6               50      0       0      18        0.0%
BITSFR17             0      0       0      18        0.0%
SFR17                0      0       0      18        0.0%
BITBANK7            50      0       0      19        0.0%
BITSFR18             0      0       0      19        0.0%
SFR18                0      0       0      19        0.0%
BANK7               50      0       0      20        0.0%
BITSFR19             0      0       0      20        0.0%
SFR19                0      0       0      20        0.0%
BITBANK8            50      0       0      21        0.0%
BITSFR20             0      0       0      21        0.0%
SFR20                0      0       0      21        0.0%
BANK8               50      0       0      22        0.0%
BITSFR21             0      0       0      22        0.0%
SFR21                0      0       0      22        0.0%
BITBANK9            50      0       0      23        0.0%
BITSFR22             0      0       0      23        0.0%
SFR22                0      0       0      23        0.0%
BANK9               50      0       0      24        0.0%
BITSFR23             0      0       0      24        0.0%
SFR23                0      0       0      24        0.0%
BITBANK10           50      0       0      25        0.0%
BITSFR24             0      0       0      25        0.0%
SFR24                0      0       0      25        0.0%
BANK10              50      0       0      26        0.0%
BITSFR25             0      0       0      26        0.0%
SFR25                0      0       0      26        0.0%
BITBANK11           50      0       0      27        0.0%
BITSFR26             0      0       0      27        0.0%
SFR26                0      0       0      27        0.0%
BANK11              50      0       0      28        0.0%
BITSFR27             0      0       0      28        0.0%
SFR27                0      0       0      28        0.0%
BITBANK12           50      0       0      29        0.0%
BITSFR28             0      0       0      29        0.0%
SFR28                0      0       0      29        0.0%
BANK12              50      0       0      30        0.0%
BITSFR29             0      0       0      30        0.0%
SFR29                0      0       0      30        0.0%
BITBANK13           50      0       0      31        0.0%
BITSFR30             0      0       0      31        0.0%
SFR30                0      0       0      31        0.0%
BANK13              50      0       0      32        0.0%
BITSFR31             0      0       0      32        0.0%
SFR31                0      0       0      32        0.0%
BITBANK14           50      0       0      33        0.0%
BITSFR32             0      0       0      33        0.0%
SFR32                0      0       0      33        0.0%
BANK14              50      0       0      34        0.0%
BITSFR33             0      0       0      34        0.0%
SFR33                0      0       0      34        0.0%
BITBANK15           50      0       0      35        0.0%
BITSFR34             0      0       0      35        0.0%
SFR34                0      0       0      35        0.0%
BANK15              50      0       0      36        0.0%
BITSFR35             0      0       0      36        0.0%
SFR35                0      0       0      36        0.0%
BITBANK16           50      0       0      37        0.0%
BITSFR36             0      0       0      37        0.0%
SFR36                0      0       0      37        0.0%
BANK16              50      0       0      38        0.0%
BITSFR37             0      0       0      38        0.0%
SFR37                0      0       0      38        0.0%
BITBANK17           50      0       0      39        0.0%
BITSFR38             0      0       0      39        0.0%
SFR38                0      0       0      39        0.0%
BANK17              50      0       0      40        0.0%
BITSFR39             0      0       0      40        0.0%
SFR39                0      0       0      40        0.0%
BITBANK18           50      0       0      41        0.0%
BITSFR40             0      0       0      41        0.0%
SFR40                0      0       0      41        0.0%
BANK18              50      0       0      42        0.0%
BITSFR41             0      0       0      42        0.0%
SFR41                0      0       0      42        0.0%
BITBANK19           50      0       0      43        0.0%
BITSFR42             0      0       0      43        0.0%
SFR42                0      0       0      43        0.0%
BANK19              50      0       0      44        0.0%
BITSFR43             0      0       0      44        0.0%
SFR43                0      0       0      44        0.0%
BITBANK20           50      0       0      45        0.0%
BITSFR44             0      0       0      45        0.0%
SFR44                0      0       0      45        0.0%
BANK20              50      0       0      46        0.0%
BITSFR45             0      0       0      46        0.0%
SFR45                0      0       0      46        0.0%
BITBANK21           50      0       0      47        0.0%
BITSFR46             0      0       0      47        0.0%
SFR46                0      0       0      47        0.0%
BANK21              50      0       0      48        0.0%
BITSFR47             0      0       0      48        0.0%
SFR47                0      0       0      48        0.0%
BITBANK22           50      0       0      49        0.0%
BITSFR48             0      0       0      49        0.0%
SFR48                0      0       0      49        0.0%
BANK22              50      0       0      50        0.0%
BITSFR49             0      0       0      50        0.0%
SFR49                0      0       0      50        0.0%
BITBANK23           50      0       0      51        0.0%
BITSFR50             0      0       0      51        0.0%
SFR50                0      0       0      51        0.0%
BANK23              50      0       0      52        0.0%
BITSFR51             0      0       0      52        0.0%
SFR51                0      0       0      52        0.0%
BITBANK24           50      0       0      53        0.0%
BITSFR52             0      0       0      53        0.0%
SFR52                0      0       0      53        0.0%
BANK24              50      0       0      54        0.0%
BITSFR53             0      0       0      54        0.0%
SFR53                0      0       0      54        0.0%
BITBANK25           20      0       0      55        0.0%
BITSFR54             0      0       0      55        0.0%
SFR54                0      0       0      55        0.0%
BANK25              20      0       0      56        0.0%
BITSFR55             0      0       0      56        0.0%
SFR55                0      0       0      56        0.0%
BITSFR56             0      0       0      57        0.0%
SFR56                0      0       0      57        0.0%
DATA                 0      0      33      57        0.0%
BITSFR57             0      0       0      58        0.0%
SFR57                0      0       0      58        0.0%
BITSFR58             0      0       0      59        0.0%
SFR58                0      0       0      59        0.0%
BITSFR59             0      0       0      60        0.0%
SFR59                0      0       0      60        0.0%
BITSFR60             0      0       0      61        0.0%
SFR60                0      0       0      61        0.0%
BITSFR61             0      0       0      62        0.0%
SFR61                0      0       0      62        0.0%
BITSFR62             0      0       0      63        0.0%
SFR62                0      0       0      63        0.0%
BITSFR63             0      0       0      64        0.0%
SFR63                0      0       0      64        0.0%


Microchip Technology PIC Macro Assembler V2.10 build 88905656 
Symbol Table                                                                                   Mon Oct 21 11:14:31 2019

                        __CFG_CP$OFF 0000                          __CFG_LVP$ON 0000  
                                l282 0274                                  l275 019A  
                                _GIE 005F                                  u745 016F  
                                u817 020C                                  u754 017D  
                                u755 017C                                  u774 0197  
                                u775 0196                                  u794 01A6  
                                u795 01A5              __size_of_PMD_Initialize 000A  
                       __CFG_BORV$LO 0000                                  wreg 0009  
                      __CFG_BBEN$OFF 0000                     __end_of_I2C1_ISR 0160  
                               l1554 0166                                 l1566 01B0  
                               l1558 0180                                 l1588 02A3  
                               _LATA 0018                                 _LATC 001A  
                               _PMD0 0796                                 i1l21 0015  
                               _PMD1 0797                                 _PMD2 0798  
                               _PMD3 0799                                 i1l16 0010  
                               _PMD4 079A                                 _PMD5 079B  
                               _PMD6 079C                                 _PMD7 079D  
                               _WPUA 1F39                                 _WPUC 1F4F  
                      __CFG_FCMEN$ON 0000                                 _main 02A0  
                               fsr0h 0005                                 fsr1h 0007  
                               indf0 0000                                 fsr0l 0004  
                               indf1 0001                                 fsr1l 0006  
                               btemp 007E                        __CFG_BOREN$ON 0000  
                               start 0017                        __CFG_CSWEN$ON 0000  
                      __CFG_MCLRE$ON 0000                      __end_of_WS_Word 01C7  
                         _i2c1_state 0073       __size_of_OSCILLATOR_Initialize 0009  
      __end_of_OSCILLATOR_Initialize 02B2                                ?_main 0076  
                  __end_of_I2C1_Stop 0268                        __CFG_WDTE$OFF 0000  
                              i1l200 0128                                i1l207 0287  
                              i1l171 0067                                i1l172 0068  
                              i1l166 003C                                i1l192 00E9  
                              i1l177 0087                                i1l178 0092  
                              i1l195 00F8                                i1l196 0105  
                              i1l188 00CA                                _OSCEN 0891  
                              _TRISA 0012                                _TRISC 0014  
       __end_of_I2C1_BusCollisionISR 02BB                    ??_I2C1_Initialize 0020  
                      __CFG_WRTB$OFF 0000                        __CFG_WRTC$OFF 0000  
                      __CFG_WRTD$OFF 0000                                status 0003  
                              wtemp0 007E                      __initialization 0019  
                   __end_of_WS_Write 027A                         __end_of_main 02A9  
                     __CFG_SAFEN$OFF 0000          ?_INTERRUPT_InterruptManager 0076  
                        _i2c1_object 0034                               ??_main 0034  
                             _ANSELA 1F38                               _ANSELC 1F4E  
                 __CFG_RSTOSC$HFINT1 0000                               _RC0PPS 1F20  
                             _RC1PPS 1F21                               i1l1300 005B  
                             i1l1312 0073                               i1l1304 0062  
                             i1l1242 0266                               i1l1402 012C  
                             i1l1404 012F                               i1l1332 00AB  
                             i1l1412 013C                               i1l1406 0133  
                             i1l1318 0082                               i1l1352 00C0  
                             _ODCONA 1F3A                               _ODCONC 1F50  
                             i1l1390 0111                               i1l1374 00EC  
                             i1l1366 00D7                               i1l1386 010B  
                     __CFG_WDTCCS$SC 0000                               _INLVLA 1F3C  
                             _INLVLC 1F52                               _OSCFRQ 0893  
                          ??_WS_Word 0024                               _WSLoop 01C7  
                     __CFG_PWRTS$OFF 0000                       _p_i2c1_current 0070  
                     __CFG_STVREN$ON 0000                            ?_I2C1_ISR 0076  
                     _PMD_Initialize 0296                    _SYSTEM_Initialize 028A  
            __end_of__initialization 0026                   ?_SYSTEM_Initialize 0076  
                     _i2c1_trb_count 0072                _I2C1_FunctionComplete 027A  
               _I2C1_BusCollisionISR 02B8                       __pcstackCOMMON 0076  
                ??_SYSTEM_Initialize 0021                           ??_I2C1_ISR 0078  
             __end_of_PMD_Initialize 02A0            __end_of_SYSTEM_Initialize 0296  
                          ?_WS_Write 0020                           __pbssBANK0 0034  
                            ?_WSLoop 0076                ?_I2C1_BusCollisionISR 0076  
                         __pmaintext 02A0                      __CFG_PPS1WAY$ON 0000  
                         __pintentry 0004                      _I2C1_Initialize 0238  
                    __CFG_ZCDDIS$OFF 0000                      ?_PMD_Initialize 0076  
                            _OSCCON1 088D                              _OSCCON3 088F  
                          _I2C1_Stop 0251                              _OSCTUNE 0892  
                            _SSP1ADD 018D                              _SLRCONA 1F3B  
                            _SLRCONC 1F51                              _SSP1BUF 018C  
                         ??_WS_Write 0022                              _WS_Word 0160  
             ?_I2C1_FunctionComplete 0076                      __size_of_WSLoop 004D  
                 _p_i2c1_trb_current 0071                              __ptext1 01C7  
                            __ptext2 0160                              __ptext3 0268  
                            __ptext4 028A                              __ptext5 0296  
                            __ptext6 0214                              __ptext7 02A9  
                            __ptext8 0238                      __CFG_WRTAPP$OFF 0000  
              _OSCILLATOR_Initialize 02A9             ??_PIN_MANAGER_Initialize 0020  
                    __CFG_WRTSAF$OFF 0000                           ?_I2C1_Stop 0076  
         __size_of_SYSTEM_Initialize 000C                 I2C1_ISR@pi2c_buf_ptr 003B  
                            clrloop0 02B3                 end_of_initialization 0026  
             ??_I2C1_BusCollisionISR 0076              __end_of_I2C1_Initialize 0251  
              __CFG_WDTCPS$WDTCPS_31 0000                    __size_of_I2C1_ISR 0136  
                          WS_Word@Bx 002E                            WS_Write@A 0020  
                   __CFG_FEXTOSC$OFF 0000    I2C1_ISR@i2c_10bit_address_restart 0039  
                     __end_of_WSLoop 0214              I2C1_MasterWrite@trBlock 0040  
           I2C1_Stop@completion_code 0077               ?_OSCILLATOR_Initialize 0076  
                start_initialization 0019                          ??_I2C1_Stop 0076  
    __size_of_PIN_MANAGER_Initialize 0024                    __size_of_WS_Write 0012  
                           ??_WSLoop 0032                     ?_I2C1_Initialize 0076  
                   __CFG_LPBOREN$OFF 0000                     ??_PMD_Initialize 0020  
                        __pbssCOMMON 0070                            ___latbits 0003  
                      __pcstackBANK0 0020                        _i2c1_tr_queue 0044  
            ??_I2C1_FunctionComplete 0076                             ?_WS_Word 0022  
             _PIN_MANAGER_Initialize 0214                             _I2C1_ISR 002A  
       ??_INTERRUPT_InterruptManager 007C               I2C1_MasterRead@trBlock 003C  
                           _LATAbits 0018                            clear_ram0 02B2  
                           _PIE3bits 0719  __size_of_INTERRUPT_InterruptManager 0013  
                           _PIR3bits 070F                    __CFG_BBSIZE$BB512 0000  
                           _SSP1CON1 0190                             _SSP1CON3 0192  
                           _SSP1STAT 018F                             WS_Word@A 0027  
                           WS_Word@B 0022                             WS_Word@C 0023  
                           WS_Word@i 0030                             WS_Word@x 0028  
                           _WS_Write 0268                     __size_of_WS_Word 0067  
      __size_of_I2C1_BusCollisionISR 0003               I2C1_ISR@i2c_bytes_left 003A  
            ??_OSCILLATOR_Initialize 0020                  I2C1_ISR@i2c_address 0074  
                           __ptext10 002A                             __ptext11 0251  
                           __ptext12 027A                             __ptext13 02B8  
                       _SSP1CON1bits 0190                         _SSP1CON2bits 0191  
                      __size_of_main 0009                 __CFG_WDTCWS$WDTCWS_7 0000  
                           int$flags 007E   __end_of_INTERRUPT_InterruptManager 0017  
         _INTERRUPT_InterruptManager 0004                           _INTCONbits 000B  
                           intlevel1 0000              ?_PIN_MANAGER_Initialize 0076  
                  __CFG_CLKOUTEN$OFF 0000       __size_of_I2C1_FunctionComplete 0010  
      __end_of_I2C1_FunctionComplete 028A                         WS_Word@x_520 002C  
                       WS_Word@x_519 002A             __size_of_I2C1_Initialize 0019  
                         _SSP1DATPPS 1EC6                           _SSP1CLKPPS 1EC5  
     __end_of_PIN_MANAGER_Initialize 0238                   __size_of_I2C1_Stop 0017  
